
../../dash/src/dash:     file format elf64-littleaarch64


Disassembly of section .init:

0000000000400120 <_init>:
  400120:	a9bf7bfd 	stp	x29, x30, [sp, #-16]!
  400124:	910003fd 	mov	x29, sp
  400128:	a8c17bfd 	ldp	x29, x30, [sp], #16
  40012c:	d65f03c0 	ret

Disassembly of section .text:

0000000000400130 <exit>:
  400130:	a9bf7bf3 	stp	x19, x30, [sp, #-16]!
  400134:	2a0003f3 	mov	w19, w0
  400138:	940066df 	bl	419cb4 <__funcs_on_exit>
  40013c:	940066df 	bl	419cb8 <__libc_exit_fini>
  400140:	94009547 	bl	42565c <__stdio_exit>
  400144:	2a1303e0 	mov	w0, w19
  400148:	9400822b 	bl	4209f4 <_Exit>
  40014c:	d503201f 	nop

0000000000400150 <main>:
  400150:	a9b77bfd 	stp	x29, x30, [sp, #-144]!
  400154:	910003fd 	mov	x29, sp
  400158:	a90153f3 	stp	x19, x20, [sp, #16]
  40015c:	d0000193 	adrp	x19, 432000 <signal_names+0x100>
  400160:	f943d262 	ldr	x2, [x19, #1952]
  400164:	f90027e1 	str	x1, [sp, #72]
  400168:	b90047e0 	str	w0, [sp, #68]
  40016c:	f9400041 	ldr	x1, [x2]
  400170:	f90047e1 	str	x1, [sp, #136]
  400174:	d2800001 	mov	x1, #0x0                   	// #0
  400178:	a9025bf5 	stp	x21, x22, [sp, #32]
  40017c:	f947d260 	ldr	x0, [x19, #4000]
  400180:	a90363f7 	stp	x23, x24, [sp, #48]
  400184:	f9436e61 	ldr	x1, [x19, #1752]
  400188:	b90057ff 	str	wzr, [sp, #84]
  40018c:	d63f0020 	blr	x1
  400190:	d0000193 	adrp	x19, 432000 <signal_names+0x100>
  400194:	35000720 	cbnz	w0, 400278 <main+0x128>
  400198:	f945d660 	ldr	x0, [x19, #2984]
  40019c:	f947d261 	ldr	x1, [x19, #4000]
  4001a0:	f9000001 	str	x1, [x0]
  4001a4:	f9440e60 	ldr	x0, [x19, #2072]
  4001a8:	d63f0000 	blr	x0
  4001ac:	f945ee73 	ldr	x19, [x19, #3032]
  4001b0:	b9000260 	str	w0, [x19]
  4001b4:	d0000193 	adrp	x19, 432000 <signal_names+0x100>
  4001b8:	f945e260 	ldr	x0, [x19, #3008]
  4001bc:	d63f0000 	blr	x0
  4001c0:	f9469a61 	ldr	x1, [x19, #3376]
  4001c4:	910163e0 	add	x0, sp, #0x58
  4001c8:	d63f0020 	blr	x1
  4001cc:	f9435e62 	ldr	x2, [x19, #1720]
  4001d0:	b94047e0 	ldr	w0, [sp, #68]
  4001d4:	f94027e1 	ldr	x1, [sp, #72]
  4001d8:	d63f0040 	blr	x2
  4001dc:	35000f20 	cbnz	w0, 4003c0 <main+0x270>
  4001e0:	d0000193 	adrp	x19, 432000 <signal_names+0x100>
  4001e4:	52800060 	mov	w0, #0x3                   	// #3
  4001e8:	b90057e0 	str	w0, [sp, #84]
  4001ec:	f944b673 	ldr	x19, [x19, #2408]
  4001f0:	39400e60 	ldrb	w0, [x19, #3]
  4001f4:	34000120 	cbz	w0, 400218 <main+0xc8>
  4001f8:	d0000193 	adrp	x19, 432000 <signal_names+0x100>
  4001fc:	b0000140 	adrp	x0, 429000 <prec+0x170>
  400200:	91174000 	add	x0, x0, #0x5d0
  400204:	f9447a61 	ldr	x1, [x19, #2288]
  400208:	d63f0020 	blr	x1
  40020c:	b4000060 	cbz	x0, 400218 <main+0xc8>
  400210:	39400001 	ldrb	w1, [x0]
  400214:	35001281 	cbnz	w1, 400464 <main+0x314>
  400218:	d0000193 	adrp	x19, 432000 <signal_names+0x100>
  40021c:	910163e0 	add	x0, sp, #0x58
  400220:	f944a661 	ldr	x1, [x19, #2376]
  400224:	d63f0020 	blr	x1
  400228:	d0000193 	adrp	x19, 432000 <signal_names+0x100>
  40022c:	52800080 	mov	w0, #0x4                   	// #4
  400230:	b90057e0 	str	w0, [sp, #84]
  400234:	f9460e74 	ldr	x20, [x19, #3096]
  400238:	f9400280 	ldr	x0, [x20]
  40023c:	b40006e0 	cbz	x0, 400318 <main+0x1c8>
  400240:	f944b675 	ldr	x21, [x19, #2408]
  400244:	d0000193 	adrp	x19, 432000 <signal_names+0x100>
  400248:	f944de62 	ldr	x2, [x19, #2488]
  40024c:	39401aa1 	ldrb	w1, [x21, #6]
  400250:	7100003f 	cmp	w1, #0x0
  400254:	1a9f17e1 	cset	w1, eq  // eq = none
  400258:	d63f0040 	blr	x2
  40025c:	39401aa0 	ldrb	w0, [x21, #6]
  400260:	350005c0 	cbnz	w0, 400318 <main+0x1c8>
  400264:	f9400280 	ldr	x0, [x20]
  400268:	b4000580 	cbz	x0, 400318 <main+0x1c8>
  40026c:	d0000193 	adrp	x19, 432000 <signal_names+0x100>
  400270:	f943ba60 	ldr	x0, [x19, #1904]
  400274:	d63f0000 	blr	x0
  400278:	f946d660 	ldr	x0, [x19, #3496]
  40027c:	d63f0000 	blr	x0
  400280:	b94057f4 	ldr	w20, [sp, #84]
  400284:	f946b260 	ldr	x0, [x19, #3424]
  400288:	7100029f 	cmp	w20, #0x0
  40028c:	b9400015 	ldr	w21, [x0]
  400290:	51000ea0 	sub	w0, w21, #0x3
  400294:	7a411800 	ccmp	w0, #0x1, #0x0, ne  // ne = any
  400298:	54fffea9 	b.ls	40026c <main+0x11c>  // b.plast
  40029c:	f944b660 	ldr	x0, [x19, #2408]
  4002a0:	39400c00 	ldrb	w0, [x0, #3]
  4002a4:	34fffe40 	cbz	w0, 40026c <main+0x11c>
  4002a8:	f9460260 	ldr	x0, [x19, #3072]
  4002ac:	b9400000 	ldr	w0, [x0]
  4002b0:	35fffde0 	cbnz	w0, 40026c <main+0x11c>
  4002b4:	d0000193 	adrp	x19, 432000 <signal_names+0x100>
  4002b8:	f9440660 	ldr	x0, [x19, #2056]
  4002bc:	d63f0000 	blr	x0
  4002c0:	350000f5 	cbnz	w21, 4002dc <main+0x18c>
  4002c4:	f943e273 	ldr	x19, [x19, #1984]
  4002c8:	52800140 	mov	w0, #0xa                   	// #10
  4002cc:	f9400261 	ldr	x1, [x19]
  4002d0:	d0000193 	adrp	x19, 432000 <signal_names+0x100>
  4002d4:	f9456e62 	ldr	x2, [x19, #2776]
  4002d8:	d63f0040 	blr	x2
  4002dc:	d0000193 	adrp	x19, 432000 <signal_names+0x100>
  4002e0:	910163e0 	add	x0, sp, #0x58
  4002e4:	f944a661 	ldr	x1, [x19, #2376]
  4002e8:	d63f0020 	blr	x1
  4002ec:	f9434660 	ldr	x0, [x19, #1672]
  4002f0:	f945a273 	ldr	x19, [x19, #2880]
  4002f4:	b9400000 	ldr	w0, [x0]
  4002f8:	b900027f 	str	wzr, [x19]
  4002fc:	35000ca0 	cbnz	w0, 400490 <main+0x340>
  400300:	7100069f 	cmp	w20, #0x1
  400304:	54000680 	b.eq	4003d4 <main+0x284>  // b.none
  400308:	71000a9f 	cmp	w20, #0x2
  40030c:	54fff6a0 	b.eq	4001e0 <main+0x90>  // b.none
  400310:	71000e9f 	cmp	w20, #0x3
  400314:	54fff8a0 	b.eq	400228 <main+0xd8>  // b.none
  400318:	d0000198 	adrp	x24, 432000 <signal_names+0x100>
  40031c:	b0000157 	adrp	x23, 429000 <prec+0x170>
  400320:	9101c3f4 	add	x20, sp, #0x70
  400324:	911762f7 	add	x23, x23, #0x5d8
  400328:	f9469b16 	ldr	x22, [x24, #3376]
  40032c:	52800015 	mov	w21, #0x0                   	// #0
  400330:	14000018 	b	400390 <main+0x240>
  400334:	f944b700 	ldr	x0, [x24, #2408]
  400338:	39400c00 	ldrb	w0, [x0, #3]
  40033c:	340000a0 	cbz	w0, 400350 <main+0x200>
  400340:	d0000193 	adrp	x19, 432000 <signal_names+0x100>
  400344:	f9443a60 	ldr	x0, [x19, #2160]
  400348:	d63f0000 	blr	x0
  40034c:	52800020 	mov	w0, #0x1                   	// #1
  400350:	d0000193 	adrp	x19, 432000 <signal_names+0x100>
  400354:	f9442261 	ldr	x1, [x19, #2112]
  400358:	d63f0020 	blr	x1
  40035c:	f9466f01 	ldr	x1, [x24, #3288]
  400360:	eb00003f 	cmp	x1, x0
  400364:	54000440 	b.eq	4003ec <main+0x29c>  // b.none
  400368:	f944b701 	ldr	x1, [x24, #2408]
  40036c:	39401421 	ldrb	w1, [x1, #5]
  400370:	34000601 	cbz	w1, 400430 <main+0x2e0>
  400374:	d0000193 	adrp	x19, 432000 <signal_names+0x100>
  400378:	aa1403e0 	mov	x0, x20
  40037c:	f944a661 	ldr	x1, [x19, #2376]
  400380:	d63f0020 	blr	x1
  400384:	f9455f01 	ldr	x1, [x24, #2744]
  400388:	b9400020 	ldr	w0, [x1]
  40038c:	35000660 	cbnz	w0, 400458 <main+0x308>
  400390:	aa1403e0 	mov	x0, x20
  400394:	d63f02c0 	blr	x22
  400398:	f9479b00 	ldr	x0, [x24, #3888]
  40039c:	b9400000 	ldr	w0, [x0]
  4003a0:	34fffca0 	cbz	w0, 400334 <main+0x1e4>
  4003a4:	f943e300 	ldr	x0, [x24, #1984]
  4003a8:	d0000193 	adrp	x19, 432000 <signal_names+0x100>
  4003ac:	52800101 	mov	w1, #0x8                   	// #8
  4003b0:	f9452262 	ldr	x2, [x19, #2624]
  4003b4:	f9400000 	ldr	x0, [x0]
  4003b8:	d63f0040 	blr	x2
  4003bc:	17ffffde 	b	400334 <main+0x1e4>
  4003c0:	52800021 	mov	w1, #0x1                   	// #1
  4003c4:	b0000140 	adrp	x0, 429000 <prec+0x170>
  4003c8:	91170000 	add	x0, x0, #0x5c0
  4003cc:	b90057e1 	str	w1, [sp, #84]
  4003d0:	9400332c 	bl	40d080 <read_profile>
  4003d4:	52800041 	mov	w1, #0x2                   	// #2
  4003d8:	b0000140 	adrp	x0, 429000 <prec+0x170>
  4003dc:	9116c000 	add	x0, x0, #0x5b0
  4003e0:	b90057e1 	str	w1, [sp, #84]
  4003e4:	94003327 	bl	40d080 <read_profile>
  4003e8:	17ffff7e 	b	4001e0 <main+0x90>
  4003ec:	7100c6bf 	cmp	w21, #0x31
  4003f0:	54fff3ec 	b.gt	40026c <main+0x11c>
  4003f4:	d0000193 	adrp	x19, 432000 <signal_names+0x100>
  4003f8:	f9452a60 	ldr	x0, [x19, #2640]
  4003fc:	d63f0000 	blr	x0
  400400:	35000140 	cbnz	w0, 400428 <main+0x2d8>
  400404:	f944b700 	ldr	x0, [x24, #2408]
  400408:	39400801 	ldrb	w1, [x0, #2]
  40040c:	34000301 	cbz	w1, 40046c <main+0x31c>
  400410:	f943e301 	ldr	x1, [x24, #1984]
  400414:	d0000193 	adrp	x19, 432000 <signal_names+0x100>
  400418:	aa1703e0 	mov	x0, x23
  40041c:	f9443e62 	ldr	x2, [x19, #2168]
  400420:	f9400021 	ldr	x1, [x1]
  400424:	d63f0040 	blr	x2
  400428:	110006b5 	add	w21, w21, #0x1
  40042c:	17ffffd2 	b	400374 <main+0x224>
  400430:	f9472f02 	ldr	x2, [x24, #3672]
  400434:	d0000193 	adrp	x19, 432000 <signal_names+0x100>
  400438:	52800015 	mov	w21, #0x0                   	// #0
  40043c:	b9400043 	ldr	w3, [x2]
  400440:	7100087f 	cmp	w3, #0x2
  400444:	1a9f17e3 	cset	w3, eq  // eq = none
  400448:	b9000043 	str	w3, [x2]
  40044c:	f9473662 	ldr	x2, [x19, #3688]
  400450:	d63f0040 	blr	x2
  400454:	17ffffc8 	b	400374 <main+0x224>
  400458:	121c7400 	and	w0, w0, #0xfffffff3
  40045c:	b9000020 	str	w0, [x1]
  400460:	17ffff83 	b	40026c <main+0x11c>
  400464:	94003307 	bl	40d080 <read_profile>
  400468:	17ffff6c 	b	400218 <main+0xc8>
  40046c:	39400c00 	ldrb	w0, [x0, #3]
  400470:	34ffefe0 	cbz	w0, 40026c <main+0x11c>
  400474:	f943e301 	ldr	x1, [x24, #1984]
  400478:	d0000193 	adrp	x19, 432000 <signal_names+0x100>
  40047c:	52800140 	mov	w0, #0xa                   	// #10
  400480:	f9456e62 	ldr	x2, [x19, #2776]
  400484:	f9400021 	ldr	x1, [x1]
  400488:	d63f0040 	blr	x2
  40048c:	17ffff78 	b	40026c <main+0x11c>
  400490:	d0000193 	adrp	x19, 432000 <signal_names+0x100>
  400494:	f943d660 	ldr	x0, [x19, #1960]
  400498:	d63f0000 	blr	x0
  40049c:	17ffff99 	b	400300 <main+0x1b0>

00000000004004a0 <_start>:
  4004a0:	d280001d 	mov	x29, #0x0                   	// #0
  4004a4:	d280001e 	mov	x30, #0x0                   	// #0
  4004a8:	910003e0 	mov	x0, sp
  4004ac:	90000001 	adrp	x1, 400000 <_init-0x120>
  4004b0:	91000021 	add	x1, x1, #0x0
  4004b4:	927cec1f 	and	sp, x0, #0xfffffffffffffff0
  4004b8:	14000001 	b	4004bc <_start_c>

00000000004004bc <_start_c>:
  4004bc:	aa0003e2 	mov	x2, x0
  4004c0:	d0000184 	adrp	x4, 432000 <signal_names+0x100>
  4004c4:	d0000183 	adrp	x3, 432000 <signal_names+0x100>
  4004c8:	d0000180 	adrp	x0, 432000 <signal_names+0x100>
  4004cc:	f946ac84 	ldr	x4, [x4, #3416]
  4004d0:	d2800005 	mov	x5, #0x0                   	// #0
  4004d4:	f944d863 	ldr	x3, [x3, #2480]
  4004d8:	f9463c00 	ldr	x0, [x0, #3192]
  4004dc:	f8408441 	ldr	x1, [x2], #8
  4004e0:	1400659f 	b	419b5c <__libc_start_main>
  4004e4:	d503201f 	nop

00000000004004e8 <deregister_tm_clones>:
  4004e8:	f0000180 	adrp	x0, 433000 <__dso_handle>
  4004ec:	910c8000 	add	x0, x0, #0x320
  4004f0:	f0000181 	adrp	x1, 433000 <__dso_handle>
  4004f4:	910c8021 	add	x1, x1, #0x320
  4004f8:	eb00003f 	cmp	x1, x0
  4004fc:	540000c0 	b.eq	400514 <deregister_tm_clones+0x2c>  // b.none
  400500:	d0000181 	adrp	x1, 432000 <signal_names+0x100>
  400504:	f9460421 	ldr	x1, [x1, #3080]
  400508:	b4000061 	cbz	x1, 400514 <deregister_tm_clones+0x2c>
  40050c:	aa0103f0 	mov	x16, x1
  400510:	d61f0200 	br	x16
  400514:	d65f03c0 	ret

0000000000400518 <register_tm_clones>:
  400518:	f0000180 	adrp	x0, 433000 <__dso_handle>
  40051c:	910c8000 	add	x0, x0, #0x320
  400520:	f0000181 	adrp	x1, 433000 <__dso_handle>
  400524:	910c8021 	add	x1, x1, #0x320
  400528:	cb000021 	sub	x1, x1, x0
  40052c:	d37ffc22 	lsr	x2, x1, #63
  400530:	8b810c41 	add	x1, x2, x1, asr #3
  400534:	eb8107ff 	cmp	xzr, x1, asr #1
  400538:	9341fc21 	asr	x1, x1, #1
  40053c:	540000c0 	b.eq	400554 <register_tm_clones+0x3c>  // b.none
  400540:	d0000182 	adrp	x2, 432000 <signal_names+0x100>
  400544:	f9454042 	ldr	x2, [x2, #2688]
  400548:	b4000062 	cbz	x2, 400554 <register_tm_clones+0x3c>
  40054c:	aa0203f0 	mov	x16, x2
  400550:	d61f0200 	br	x16
  400554:	d65f03c0 	ret

0000000000400558 <__do_global_dtors_aux>:
  400558:	a9be7bfd 	stp	x29, x30, [sp, #-32]!
  40055c:	910003fd 	mov	x29, sp
  400560:	f9000bf3 	str	x19, [sp, #16]
  400564:	f0000193 	adrp	x19, 433000 <__dso_handle>
  400568:	394c8260 	ldrb	w0, [x19, #800]
  40056c:	35000140 	cbnz	w0, 400594 <__do_global_dtors_aux+0x3c>
  400570:	d0000180 	adrp	x0, 432000 <signal_names+0x100>
  400574:	f9444400 	ldr	x0, [x0, #2184]
  400578:	b4000080 	cbz	x0, 400588 <__do_global_dtors_aux+0x30>
  40057c:	f0000180 	adrp	x0, 433000 <__dso_handle>
  400580:	f9400000 	ldr	x0, [x0]
  400584:	d503201f 	nop
  400588:	97ffffd8 	bl	4004e8 <deregister_tm_clones>
  40058c:	52800020 	mov	w0, #0x1                   	// #1
  400590:	390c8260 	strb	w0, [x19, #800]
  400594:	f9400bf3 	ldr	x19, [sp, #16]
  400598:	a8c27bfd 	ldp	x29, x30, [sp], #32
  40059c:	d65f03c0 	ret

00000000004005a0 <frame_dummy>:
  4005a0:	17ffffde 	b	400518 <register_tm_clones>
  4005a4:	d503201f 	nop

00000000004005a8 <unalias>:
  4005a8:	a9bc7bfd 	stp	x29, x30, [sp, #-64]!
  4005ac:	910003fd 	mov	x29, sp
  4005b0:	a90153f3 	stp	x19, x20, [sp, #16]
  4005b4:	a9025bf5 	stp	x21, x22, [sp, #32]
  4005b8:	aa0003f6 	mov	x22, x0
  4005bc:	a90363f7 	stp	x23, x24, [sp, #48]
  4005c0:	39400001 	ldrb	w1, [x0]
  4005c4:	531c6c23 	lsl	w3, w1, #4
  4005c8:	340000a1 	cbz	w1, 4005dc <unalias+0x34>
  4005cc:	d503201f 	nop
  4005d0:	0b010063 	add	w3, w3, w1
  4005d4:	38401c01 	ldrb	w1, [x0, #1]!
  4005d8:	35ffffc1 	cbnz	w1, 4005d0 <unalias+0x28>
  4005dc:	528834a2 	mov	w2, #0x41a5                	// #16805
  4005e0:	528004e5 	mov	w5, #0x27                  	// #39
  4005e4:	72b48342 	movk	w2, #0xa41a, lsl #16
  4005e8:	d0000195 	adrp	x21, 432000 <signal_names+0x100>
  4005ec:	9ba27c61 	umull	x1, w3, w2
  4005f0:	f9476ea0 	ldr	x0, [x21, #3800]
  4005f4:	d360fc22 	lsr	x2, x1, #32
  4005f8:	4b020061 	sub	w1, w3, w2
  4005fc:	0b410441 	add	w1, w2, w1, lsr #1
  400600:	53057c21 	lsr	w1, w1, #5
  400604:	1b058c21 	msub	w1, w1, w5, w3
  400608:	8b010c17 	add	x23, x0, x1, lsl #3
  40060c:	f8617813 	ldr	x19, [x0, x1, lsl #3]
  400610:	b4000453 	cbz	x19, 400698 <unalias+0xf0>
  400614:	f94692b8 	ldr	x24, [x21, #3360]
  400618:	14000004 	b	400628 <unalias+0x80>
  40061c:	aa1303f7 	mov	x23, x19
  400620:	f9400273 	ldr	x19, [x19]
  400624:	b40003b3 	cbz	x19, 400698 <unalias+0xf0>
  400628:	f9400661 	ldr	x1, [x19, #8]
  40062c:	aa1603e0 	mov	x0, x22
  400630:	d63f0300 	blr	x24
  400634:	2a0003f4 	mov	w20, w0
  400638:	35ffff20 	cbnz	w0, 40061c <unalias+0x74>
  40063c:	f945a2a1 	ldr	x1, [x21, #2880]
  400640:	b9400020 	ldr	w0, [x1]
  400644:	11000400 	add	w0, w0, #0x1
  400648:	b9000020 	str	w0, [x1]
  40064c:	f94002f3 	ldr	x19, [x23]
  400650:	b9401a60 	ldr	w0, [x19, #24]
  400654:	36000300 	tbz	w0, #0, 4006b4 <unalias+0x10c>
  400658:	321f0000 	orr	w0, w0, #0x2
  40065c:	b9001a60 	str	w0, [x19, #24]
  400660:	f90002f3 	str	x19, [x23]
  400664:	f945a2a1 	ldr	x1, [x21, #2880]
  400668:	d0000184 	adrp	x4, 432000 <signal_names+0x100>
  40066c:	b9400020 	ldr	w0, [x1]
  400670:	51000400 	sub	w0, w0, #0x1
  400674:	b9000020 	str	w0, [x1]
  400678:	35000120 	cbnz	w0, 40069c <unalias+0xf4>
  40067c:	f94346b5 	ldr	x21, [x21, #1672]
  400680:	b94002b4 	ldr	w20, [x21]
  400684:	340000d4 	cbz	w20, 40069c <unalias+0xf4>
  400688:	f943d480 	ldr	x0, [x4, #1960]
  40068c:	52800014 	mov	w20, #0x0                   	// #0
  400690:	d63f0000 	blr	x0
  400694:	14000002 	b	40069c <unalias+0xf4>
  400698:	52800034 	mov	w20, #0x1                   	// #1
  40069c:	2a1403e0 	mov	w0, w20
  4006a0:	a94153f3 	ldp	x19, x20, [sp, #16]
  4006a4:	a9425bf5 	ldp	x21, x22, [sp, #32]
  4006a8:	a94363f7 	ldp	x23, x24, [sp, #48]
  4006ac:	a8c47bfd 	ldp	x29, x30, [sp], #64
  4006b0:	d65f03c0 	ret
  4006b4:	a9400278 	ldp	x24, x0, [x19]
  4006b8:	f947deb6 	ldr	x22, [x21, #4024]
  4006bc:	d63f02c0 	blr	x22
  4006c0:	f9400a60 	ldr	x0, [x19, #16]
  4006c4:	d63f02c0 	blr	x22
  4006c8:	aa1303e0 	mov	x0, x19
  4006cc:	aa1803f3 	mov	x19, x24
  4006d0:	d63f02c0 	blr	x22
  4006d4:	17ffffe3 	b	400660 <unalias+0xb8>

00000000004006d8 <rmaliases>:
  4006d8:	a9bb7bfd 	stp	x29, x30, [sp, #-80]!
  4006dc:	910003fd 	mov	x29, sp
  4006e0:	a9046bf9 	stp	x25, x26, [sp, #64]
  4006e4:	d000019a 	adrp	x26, 432000 <signal_names+0x100>
  4006e8:	f945a341 	ldr	x1, [x26, #2880]
  4006ec:	a90153f3 	stp	x19, x20, [sp, #16]
  4006f0:	a9025bf5 	stp	x21, x22, [sp, #32]
  4006f4:	b9400020 	ldr	w0, [x1]
  4006f8:	a90363f7 	stp	x23, x24, [sp, #48]
  4006fc:	11000400 	add	w0, w0, #0x1
  400700:	b9000020 	str	w0, [x1]
  400704:	f9476f58 	ldr	x24, [x26, #3800]
  400708:	f947df56 	ldr	x22, [x26, #4024]
  40070c:	9104e319 	add	x25, x24, #0x138
  400710:	f9400315 	ldr	x21, [x24]
  400714:	aa1803f7 	mov	x23, x24
  400718:	aa1503f3 	mov	x19, x21
  40071c:	b5000135 	cbnz	x21, 400740 <rmaliases+0x68>
  400720:	14000015 	b	400774 <rmaliases+0x9c>
  400724:	b9001a61 	str	w1, [x19, #24]
  400728:	f90002f5 	str	x21, [x23]
  40072c:	f94002b4 	ldr	x20, [x21]
  400730:	aa1503f7 	mov	x23, x21
  400734:	b4000214 	cbz	x20, 400774 <rmaliases+0x9c>
  400738:	aa1403f3 	mov	x19, x20
  40073c:	aa1403f5 	mov	x21, x20
  400740:	b9401a60 	ldr	w0, [x19, #24]
  400744:	321f0001 	orr	w1, w0, #0x2
  400748:	3707fee0 	tbnz	w0, #0, 400724 <rmaliases+0x4c>
  40074c:	a9400274 	ldp	x20, x0, [x19]
  400750:	d63f02c0 	blr	x22
  400754:	f9400a60 	ldr	x0, [x19, #16]
  400758:	d63f02c0 	blr	x22
  40075c:	aa1303e0 	mov	x0, x19
  400760:	d63f02c0 	blr	x22
  400764:	f90002f4 	str	x20, [x23]
  400768:	eb15029f 	cmp	x20, x21
  40076c:	54fffe00 	b.eq	40072c <rmaliases+0x54>  // b.none
  400770:	b5fffe54 	cbnz	x20, 400738 <rmaliases+0x60>
  400774:	91002318 	add	x24, x24, #0x8
  400778:	eb18033f 	cmp	x25, x24
  40077c:	54fffca1 	b.ne	400710 <rmaliases+0x38>  // b.any
  400780:	f945a342 	ldr	x2, [x26, #2880]
  400784:	d0000181 	adrp	x1, 432000 <signal_names+0x100>
  400788:	b9400040 	ldr	w0, [x2]
  40078c:	51000400 	sub	w0, w0, #0x1
  400790:	b9000040 	str	w0, [x2]
  400794:	35000080 	cbnz	w0, 4007a4 <rmaliases+0xcc>
  400798:	f943475a 	ldr	x26, [x26, #1672]
  40079c:	b9400340 	ldr	w0, [x26]
  4007a0:	350000e0 	cbnz	w0, 4007bc <rmaliases+0xe4>
  4007a4:	a94153f3 	ldp	x19, x20, [sp, #16]
  4007a8:	a9425bf5 	ldp	x21, x22, [sp, #32]
  4007ac:	a94363f7 	ldp	x23, x24, [sp, #48]
  4007b0:	a9446bf9 	ldp	x25, x26, [sp, #64]
  4007b4:	a8c57bfd 	ldp	x29, x30, [sp], #80
  4007b8:	d65f03c0 	ret
  4007bc:	a94153f3 	ldp	x19, x20, [sp, #16]
  4007c0:	a9425bf5 	ldp	x21, x22, [sp, #32]
  4007c4:	a94363f7 	ldp	x23, x24, [sp, #48]
  4007c8:	a9446bf9 	ldp	x25, x26, [sp, #64]
  4007cc:	a8c57bfd 	ldp	x29, x30, [sp], #80
  4007d0:	f943d430 	ldr	x16, [x1, #1960]
  4007d4:	d61f0200 	br	x16

00000000004007d8 <lookupalias>:
  4007d8:	a9bd7bfd 	stp	x29, x30, [sp, #-48]!
  4007dc:	910003fd 	mov	x29, sp
  4007e0:	a90153f3 	stp	x19, x20, [sp, #16]
  4007e4:	2a0103f4 	mov	w20, w1
  4007e8:	a9025bf5 	stp	x21, x22, [sp, #32]
  4007ec:	aa0003f6 	mov	x22, x0
  4007f0:	39400001 	ldrb	w1, [x0]
  4007f4:	531c6c24 	lsl	w4, w1, #4
  4007f8:	340000a1 	cbz	w1, 40080c <lookupalias+0x34>
  4007fc:	d503201f 	nop
  400800:	0b010084 	add	w4, w4, w1
  400804:	38401c01 	ldrb	w1, [x0, #1]!
  400808:	35ffffc1 	cbnz	w1, 400800 <lookupalias+0x28>
  40080c:	528834a3 	mov	w3, #0x41a5                	// #16805
  400810:	528004e5 	mov	w5, #0x27                  	// #39
  400814:	72b48343 	movk	w3, #0xa41a, lsl #16
  400818:	d0000181 	adrp	x1, 432000 <signal_names+0x100>
  40081c:	9ba37c82 	umull	x2, w4, w3
  400820:	f9476c20 	ldr	x0, [x1, #3800]
  400824:	d360fc43 	lsr	x3, x2, #32
  400828:	4b030082 	sub	w2, w4, w3
  40082c:	0b420462 	add	w2, w3, w2, lsr #1
  400830:	53057c42 	lsr	w2, w2, #5
  400834:	1b059042 	msub	w2, w2, w5, w4
  400838:	f8627813 	ldr	x19, [x0, x2, lsl #3]
  40083c:	b40001b3 	cbz	x19, 400870 <lookupalias+0x98>
  400840:	f9469035 	ldr	x21, [x1, #3360]
  400844:	14000003 	b	400850 <lookupalias+0x78>
  400848:	f9400273 	ldr	x19, [x19]
  40084c:	b4000133 	cbz	x19, 400870 <lookupalias+0x98>
  400850:	f9400661 	ldr	x1, [x19, #8]
  400854:	aa1603e0 	mov	x0, x22
  400858:	d63f02a0 	blr	x21
  40085c:	35ffff60 	cbnz	w0, 400848 <lookupalias+0x70>
  400860:	34000094 	cbz	w20, 400870 <lookupalias+0x98>
  400864:	b9401a60 	ldr	w0, [x19, #24]
  400868:	f240001f 	tst	x0, #0x1
  40086c:	9a9f0273 	csel	x19, x19, xzr, eq  // eq = none
  400870:	aa1303e0 	mov	x0, x19
  400874:	a94153f3 	ldp	x19, x20, [sp, #16]
  400878:	a9425bf5 	ldp	x21, x22, [sp, #32]
  40087c:	a8c37bfd 	ldp	x29, x30, [sp], #48
  400880:	d65f03c0 	ret
  400884:	d503201f 	nop

0000000000400888 <aliascmd>:
  400888:	a9b97bfd 	stp	x29, x30, [sp, #-112]!
  40088c:	7100041f 	cmp	w0, #0x1
  400890:	910003fd 	mov	x29, sp
  400894:	a90363f7 	stp	x23, x24, [sp, #48]
  400898:	a90573fb 	stp	x27, x28, [sp, #80]
  40089c:	54001460 	b.eq	400b28 <aliascmd+0x2a0>  // b.none
  4008a0:	f940043c 	ldr	x28, [x1, #8]
  4008a4:	91002038 	add	x24, x1, #0x8
  4008a8:	5280001b 	mov	w27, #0x0                   	// #0
  4008ac:	d0000197 	adrp	x23, 432000 <signal_names+0x100>
  4008b0:	b400175c 	cbz	x28, 400b98 <aliascmd+0x310>
  4008b4:	a9046bf9 	stp	x25, x26, [sp, #64]
  4008b8:	528834ba 	mov	w26, #0x41a5                	// #16805
  4008bc:	90000140 	adrp	x0, 428000 <__subtf3+0x758>
  4008c0:	72b4835a 	movk	w26, #0xa41a, lsl #16
  4008c4:	91376000 	add	x0, x0, #0xdd8
  4008c8:	a90153f3 	stp	x19, x20, [sp, #16]
  4008cc:	a9025bf5 	stp	x21, x22, [sp, #32]
  4008d0:	f90037e0 	str	x0, [sp, #104]
  4008d4:	d503201f 	nop
  4008d8:	d0000187 	adrp	x7, 432000 <signal_names+0x100>
  4008dc:	91000780 	add	x0, x28, #0x1
  4008e0:	528007a1 	mov	w1, #0x3d                  	// #61
  4008e4:	f9478ce2 	ldr	x2, [x7, #3864]
  4008e8:	d63f0040 	blr	x2
  4008ec:	aa0003f4 	mov	x20, x0
  4008f0:	b4000820 	cbz	x0, 4009f4 <aliascmd+0x16c>
  4008f4:	3800169f 	strb	wzr, [x20], #1
  4008f8:	39400380 	ldrb	w0, [x28]
  4008fc:	531c6c01 	lsl	w1, w0, #4
  400900:	340000a0 	cbz	w0, 400914 <aliascmd+0x8c>
  400904:	aa1c03e2 	mov	x2, x28
  400908:	0b000021 	add	w1, w1, w0
  40090c:	38401c40 	ldrb	w0, [x2, #1]!
  400910:	35ffffc0 	cbnz	w0, 400908 <aliascmd+0x80>
  400914:	9bba7c20 	umull	x0, w1, w26
  400918:	528004e6 	mov	w6, #0x27                  	// #39
  40091c:	f9476ee4 	ldr	x4, [x23, #3800]
  400920:	d360fc02 	lsr	x2, x0, #32
  400924:	4b020020 	sub	w0, w1, w2
  400928:	f945a2e5 	ldr	x5, [x23, #2880]
  40092c:	0b400440 	add	w0, w2, w0, lsr #1
  400930:	53057c00 	lsr	w0, w0, #5
  400934:	b94000b9 	ldr	w25, [x5]
  400938:	1b068401 	msub	w1, w0, w6, w1
  40093c:	11000739 	add	w25, w25, #0x1
  400940:	8b010c96 	add	x22, x4, x1, lsl #3
  400944:	f8617893 	ldr	x19, [x4, x1, lsl #3]
  400948:	b4000b33 	cbz	x19, 400aac <aliascmd+0x224>
  40094c:	f94692f5 	ldr	x21, [x23, #3360]
  400950:	14000004 	b	400960 <aliascmd+0xd8>
  400954:	aa1303f6 	mov	x22, x19
  400958:	f9400273 	ldr	x19, [x19]
  40095c:	b40000b3 	cbz	x19, 400970 <aliascmd+0xe8>
  400960:	f9400661 	ldr	x1, [x19, #8]
  400964:	aa1c03e0 	mov	x0, x28
  400968:	d63f02a0 	blr	x21
  40096c:	35ffff40 	cbnz	w0, 400954 <aliascmd+0xcc>
  400970:	f945a2e0 	ldr	x0, [x23, #2880]
  400974:	d0000187 	adrp	x7, 432000 <signal_names+0x100>
  400978:	b9000019 	str	w25, [x0]
  40097c:	b40009b3 	cbz	x19, 400ab0 <aliascmd+0x228>
  400980:	b9401a60 	ldr	w0, [x19, #24]
  400984:	360008c0 	tbz	w0, #0, 400a9c <aliascmd+0x214>
  400988:	d0000187 	adrp	x7, 432000 <signal_names+0x100>
  40098c:	aa1403e0 	mov	x0, x20
  400990:	f9453ce1 	ldr	x1, [x7, #2680]
  400994:	d63f0020 	blr	x1
  400998:	f9000a60 	str	x0, [x19, #16]
  40099c:	b9401a61 	ldr	w1, [x19, #24]
  4009a0:	121e7821 	and	w1, w1, #0xfffffffd
  4009a4:	b9001a61 	str	w1, [x19, #24]
  4009a8:	f945a2e1 	ldr	x1, [x23, #2880]
  4009ac:	d0000187 	adrp	x7, 432000 <signal_names+0x100>
  4009b0:	b9400020 	ldr	w0, [x1]
  4009b4:	51000400 	sub	w0, w0, #0x1
  4009b8:	b9000020 	str	w0, [x1]
  4009bc:	35000080 	cbnz	w0, 4009cc <aliascmd+0x144>
  4009c0:	f94346e0 	ldr	x0, [x23, #1672]
  4009c4:	b9400000 	ldr	w0, [x0]
  4009c8:	35000940 	cbnz	w0, 400af0 <aliascmd+0x268>
  4009cc:	f8408f1c 	ldr	x28, [x24, #8]!
  4009d0:	b5fff85c 	cbnz	x28, 4008d8 <aliascmd+0x50>
  4009d4:	2a1b03e0 	mov	w0, w27
  4009d8:	a94153f3 	ldp	x19, x20, [sp, #16]
  4009dc:	a9425bf5 	ldp	x21, x22, [sp, #32]
  4009e0:	a94363f7 	ldp	x23, x24, [sp, #48]
  4009e4:	a9446bf9 	ldp	x25, x26, [sp, #64]
  4009e8:	a94573fb 	ldp	x27, x28, [sp, #80]
  4009ec:	a8c77bfd 	ldp	x29, x30, [sp], #112
  4009f0:	d65f03c0 	ret
  4009f4:	39400380 	ldrb	w0, [x28]
  4009f8:	531c6c01 	lsl	w1, w0, #4
  4009fc:	340000c0 	cbz	w0, 400a14 <aliascmd+0x18c>
  400a00:	aa1c03e2 	mov	x2, x28
  400a04:	d503201f 	nop
  400a08:	0b000021 	add	w1, w1, w0
  400a0c:	38401c40 	ldrb	w0, [x2, #1]!
  400a10:	35ffffc0 	cbnz	w0, 400a08 <aliascmd+0x180>
  400a14:	9bba7c20 	umull	x0, w1, w26
  400a18:	528004e5 	mov	w5, #0x27                  	// #39
  400a1c:	f9476ee4 	ldr	x4, [x23, #3800]
  400a20:	d360fc02 	lsr	x2, x0, #32
  400a24:	4b020020 	sub	w0, w1, w2
  400a28:	0b400440 	add	w0, w2, w0, lsr #1
  400a2c:	53057c00 	lsr	w0, w0, #5
  400a30:	1b058401 	msub	w1, w0, w5, w1
  400a34:	8b010c94 	add	x20, x4, x1, lsl #3
  400a38:	f8617893 	ldr	x19, [x4, x1, lsl #3]
  400a3c:	b4000bb3 	cbz	x19, 400bb0 <aliascmd+0x328>
  400a40:	f94692f5 	ldr	x21, [x23, #3360]
  400a44:	14000004 	b	400a54 <aliascmd+0x1cc>
  400a48:	aa1303f4 	mov	x20, x19
  400a4c:	f9400273 	ldr	x19, [x19]
  400a50:	b4000573 	cbz	x19, 400afc <aliascmd+0x274>
  400a54:	f9400661 	ldr	x1, [x19, #8]
  400a58:	aa1c03e0 	mov	x0, x28
  400a5c:	d63f02a0 	blr	x21
  400a60:	35ffff40 	cbnz	w0, 400a48 <aliascmd+0x1c0>
  400a64:	f9400281 	ldr	x1, [x20]
  400a68:	b40004a1 	cbz	x1, 400afc <aliascmd+0x274>
  400a6c:	d0000187 	adrp	x7, 432000 <signal_names+0x100>
  400a70:	a9408033 	ldp	x19, x0, [x1, #8]
  400a74:	f943d8e1 	ldr	x1, [x7, #1968]
  400a78:	d63f0020 	blr	x1
  400a7c:	aa0003e2 	mov	x2, x0
  400a80:	d0000187 	adrp	x7, 432000 <signal_names+0x100>
  400a84:	aa1303e1 	mov	x1, x19
  400a88:	90000140 	adrp	x0, 428000 <__subtf3+0x758>
  400a8c:	91374000 	add	x0, x0, #0xdd0
  400a90:	f943b0e3 	ldr	x3, [x7, #1888]
  400a94:	d63f0060 	blr	x3
  400a98:	17ffffcd 	b	4009cc <aliascmd+0x144>
  400a9c:	f947dce1 	ldr	x1, [x7, #4024]
  400aa0:	f9400a60 	ldr	x0, [x19, #16]
  400aa4:	d63f0020 	blr	x1
  400aa8:	17ffffb8 	b	400988 <aliascmd+0x100>
  400aac:	b90000b9 	str	w25, [x5]
  400ab0:	d0000187 	adrp	x7, 432000 <signal_names+0x100>
  400ab4:	d2800400 	mov	x0, #0x20                  	// #32
  400ab8:	f94500e1 	ldr	x1, [x7, #2560]
  400abc:	d63f0020 	blr	x1
  400ac0:	aa0003f3 	mov	x19, x0
  400ac4:	f9453ef5 	ldr	x21, [x23, #2680]
  400ac8:	aa1c03e0 	mov	x0, x28
  400acc:	d63f02a0 	blr	x21
  400ad0:	f9000660 	str	x0, [x19, #8]
  400ad4:	aa1403e0 	mov	x0, x20
  400ad8:	d63f02a0 	blr	x21
  400adc:	f900027f 	str	xzr, [x19]
  400ae0:	f9000a60 	str	x0, [x19, #16]
  400ae4:	b9001a7f 	str	wzr, [x19, #24]
  400ae8:	f90002d3 	str	x19, [x22]
  400aec:	17ffffaf 	b	4009a8 <aliascmd+0x120>
  400af0:	f943d4e0 	ldr	x0, [x7, #1960]
  400af4:	d63f0000 	blr	x0
  400af8:	17ffffb5 	b	4009cc <aliascmd+0x144>
  400afc:	f943e2e0 	ldr	x0, [x23, #1984]
  400b00:	d0000187 	adrp	x7, 432000 <signal_names+0x100>
  400b04:	f94037e2 	ldr	x2, [sp, #104]
  400b08:	aa1c03e3 	mov	x3, x28
  400b0c:	f94624e4 	ldr	x4, [x7, #3144]
  400b10:	90000141 	adrp	x1, 428000 <__subtf3+0x758>
  400b14:	f9400000 	ldr	x0, [x0]
  400b18:	91378021 	add	x1, x1, #0xde0
  400b1c:	5280003b 	mov	w27, #0x1                   	// #1
  400b20:	d63f0080 	blr	x4
  400b24:	17ffffaa 	b	4009cc <aliascmd+0x144>
  400b28:	d0000197 	adrp	x23, 432000 <signal_names+0x100>
  400b2c:	aa1703e7 	mov	x7, x23
  400b30:	a9025bf5 	stp	x21, x22, [sp, #32]
  400b34:	90000155 	adrp	x21, 428000 <__subtf3+0x758>
  400b38:	913742b5 	add	x21, x21, #0xdd0
  400b3c:	f9476ef8 	ldr	x24, [x23, #3800]
  400b40:	a9046bf9 	stp	x25, x26, [sp, #64]
  400b44:	f943daf7 	ldr	x23, [x23, #1968]
  400b48:	9104e319 	add	x25, x24, #0x138
  400b4c:	f943b0f6 	ldr	x22, [x7, #1888]
  400b50:	a90153f3 	stp	x19, x20, [sp, #16]
  400b54:	d503201f 	nop
  400b58:	f9400313 	ldr	x19, [x24]
  400b5c:	b4000133 	cbz	x19, 400b80 <aliascmd+0x2f8>
  400b60:	a9408274 	ldp	x20, x0, [x19, #8]
  400b64:	d63f02e0 	blr	x23
  400b68:	aa0003e2 	mov	x2, x0
  400b6c:	aa1403e1 	mov	x1, x20
  400b70:	aa1503e0 	mov	x0, x21
  400b74:	d63f02c0 	blr	x22
  400b78:	f9400273 	ldr	x19, [x19]
  400b7c:	b5ffff33 	cbnz	x19, 400b60 <aliascmd+0x2d8>
  400b80:	91002318 	add	x24, x24, #0x8
  400b84:	eb18033f 	cmp	x25, x24
  400b88:	54fffe81 	b.ne	400b58 <aliascmd+0x2d0>  // b.any
  400b8c:	a94153f3 	ldp	x19, x20, [sp, #16]
  400b90:	a9425bf5 	ldp	x21, x22, [sp, #32]
  400b94:	a9446bf9 	ldp	x25, x26, [sp, #64]
  400b98:	5280001b 	mov	w27, #0x0                   	// #0
  400b9c:	2a1b03e0 	mov	w0, w27
  400ba0:	a94363f7 	ldp	x23, x24, [sp, #48]
  400ba4:	a94573fb 	ldp	x27, x28, [sp, #80]
  400ba8:	a8c77bfd 	ldp	x29, x30, [sp], #112
  400bac:	d65f03c0 	ret
  400bb0:	f8617881 	ldr	x1, [x4, x1, lsl #3]
  400bb4:	17ffffad 	b	400a68 <aliascmd+0x1e0>

0000000000400bb8 <unaliascmd>:
  400bb8:	a9bc7bfd 	stp	x29, x30, [sp, #-64]!
  400bbc:	910003fd 	mov	x29, sp
  400bc0:	a9025bf5 	stp	x21, x22, [sp, #32]
  400bc4:	d0000196 	adrp	x22, 432000 <signal_names+0x100>
  400bc8:	f944eed5 	ldr	x21, [x22, #2520]
  400bcc:	a90153f3 	stp	x19, x20, [sp, #16]
  400bd0:	90000154 	adrp	x20, 428000 <__subtf3+0x758>
  400bd4:	9137e294 	add	x20, x20, #0xdf8
  400bd8:	14000003 	b	400be4 <unaliascmd+0x2c>
  400bdc:	7101867f 	cmp	w19, #0x61
  400be0:	540005c0 	b.eq	400c98 <unaliascmd+0xe0>  // b.none
  400be4:	aa1403e0 	mov	x0, x20
  400be8:	d63f02a0 	blr	x21
  400bec:	2a0003f3 	mov	w19, w0
  400bf0:	35ffff60 	cbnz	w0, 400bdc <unaliascmd+0x24>
  400bf4:	f945b6c0 	ldr	x0, [x22, #2920]
  400bf8:	f9400000 	ldr	x0, [x0]
  400bfc:	f9400000 	ldr	x0, [x0]
  400c00:	b40001e0 	cbz	x0, 400c3c <unaliascmd+0x84>
  400c04:	90000155 	adrp	x21, 428000 <__subtf3+0x758>
  400c08:	90000154 	adrp	x20, 428000 <__subtf3+0x758>
  400c0c:	913802b5 	add	x21, x21, #0xe00
  400c10:	91378294 	add	x20, x20, #0xde0
  400c14:	f9001bf7 	str	x23, [sp, #48]
  400c18:	97fffe64 	bl	4005a8 <unalias>
  400c1c:	350001a0 	cbnz	w0, 400c50 <unaliascmd+0x98>
  400c20:	f945b6c1 	ldr	x1, [x22, #2920]
  400c24:	f9400020 	ldr	x0, [x1]
  400c28:	91002002 	add	x2, x0, #0x8
  400c2c:	f9400400 	ldr	x0, [x0, #8]
  400c30:	f9000022 	str	x2, [x1]
  400c34:	b5ffff20 	cbnz	x0, 400c18 <unaliascmd+0x60>
  400c38:	f9401bf7 	ldr	x23, [sp, #48]
  400c3c:	2a1303e0 	mov	w0, w19
  400c40:	a94153f3 	ldp	x19, x20, [sp, #16]
  400c44:	a9425bf5 	ldp	x21, x22, [sp, #32]
  400c48:	a8c47bfd 	ldp	x29, x30, [sp], #64
  400c4c:	d65f03c0 	ret
  400c50:	f945b6d7 	ldr	x23, [x22, #2920]
  400c54:	d0000185 	adrp	x5, 432000 <signal_names+0x100>
  400c58:	f943e2c0 	ldr	x0, [x22, #1984]
  400c5c:	aa1403e1 	mov	x1, x20
  400c60:	f94002e4 	ldr	x4, [x23]
  400c64:	aa1503e2 	mov	x2, x21
  400c68:	f9400000 	ldr	x0, [x0]
  400c6c:	52800033 	mov	w19, #0x1                   	// #1
  400c70:	f9400083 	ldr	x3, [x4]
  400c74:	f94624a4 	ldr	x4, [x5, #3144]
  400c78:	d63f0080 	blr	x4
  400c7c:	f94002e0 	ldr	x0, [x23]
  400c80:	91002001 	add	x1, x0, #0x8
  400c84:	f9400400 	ldr	x0, [x0, #8]
  400c88:	f90002e1 	str	x1, [x23]
  400c8c:	b5fffc60 	cbnz	x0, 400c18 <unaliascmd+0x60>
  400c90:	f9401bf7 	ldr	x23, [sp, #48]
  400c94:	17ffffea 	b	400c3c <unaliascmd+0x84>
  400c98:	97fffe90 	bl	4006d8 <rmaliases>
  400c9c:	52800013 	mov	w19, #0x0                   	// #0
  400ca0:	2a1303e0 	mov	w0, w19
  400ca4:	a94153f3 	ldp	x19, x20, [sp, #16]
  400ca8:	a9425bf5 	ldp	x21, x22, [sp, #32]
  400cac:	a8c47bfd 	ldp	x29, x30, [sp], #64
  400cb0:	d65f03c0 	ret
  400cb4:	d503201f 	nop

0000000000400cb8 <printalias>:
  400cb8:	a9be7bfd 	stp	x29, x30, [sp, #-32]!
  400cbc:	aa0003e1 	mov	x1, x0
  400cc0:	910003fd 	mov	x29, sp
  400cc4:	f9400800 	ldr	x0, [x0, #16]
  400cc8:	f9000bf3 	str	x19, [sp, #16]
  400ccc:	f9400433 	ldr	x19, [x1, #8]
  400cd0:	d0000181 	adrp	x1, 432000 <signal_names+0x100>
  400cd4:	f943d821 	ldr	x1, [x1, #1968]
  400cd8:	d63f0020 	blr	x1
  400cdc:	aa0003e2 	mov	x2, x0
  400ce0:	aa1303e1 	mov	x1, x19
  400ce4:	d0000183 	adrp	x3, 432000 <signal_names+0x100>
  400ce8:	f9400bf3 	ldr	x19, [sp, #16]
  400cec:	90000140 	adrp	x0, 428000 <__subtf3+0x758>
  400cf0:	a8c27bfd 	ldp	x29, x30, [sp], #32
  400cf4:	91374000 	add	x0, x0, #0xdd0
  400cf8:	f943b070 	ldr	x16, [x3, #1888]
  400cfc:	d61f0200 	br	x16

0000000000400d00 <yyerror>:
  400d00:	a9bf7bfd 	stp	x29, x30, [sp, #-16]!
  400d04:	f0000182 	adrp	x2, 433000 <__dso_handle>
  400d08:	d0000183 	adrp	x3, 432000 <signal_names+0x100>
  400d0c:	910003fd 	mov	x29, sp
  400d10:	f9419442 	ldr	x2, [x2, #808]
  400d14:	aa0003e1 	mov	x1, x0
  400d18:	f9461463 	ldr	x3, [x3, #3112]
  400d1c:	90000140 	adrp	x0, 428000 <__subtf3+0x758>
  400d20:	91382000 	add	x0, x0, #0xe08
  400d24:	d63f0060 	blr	x3

0000000000400d28 <do_binop>:
  400d28:	7100401f 	cmp	w0, #0x10
  400d2c:	54000620 	b.eq	400df0 <do_binop+0xc8>  // b.none
  400d30:	2a0003e3 	mov	w3, w0
  400d34:	5400014c 	b.gt	400d5c <do_binop+0x34>
  400d38:	71002c1f 	cmp	w0, #0xb
  400d3c:	540005e0 	b.eq	400df8 <do_binop+0xd0>  // b.none
  400d40:	540002cd 	b.le	400d98 <do_binop+0x70>
  400d44:	7100381f 	cmp	w0, #0xe
  400d48:	540005e0 	b.eq	400e04 <do_binop+0xdc>  // b.none
  400d4c:	71003c1f 	cmp	w0, #0xf
  400d50:	540001a1 	b.ne	400d84 <do_binop+0x5c>  // b.any
  400d54:	9ac22020 	lsl	x0, x1, x2
  400d58:	d65f03c0 	ret
  400d5c:	7100501f 	cmp	w0, #0x14
  400d60:	54000560 	b.eq	400e0c <do_binop+0xe4>  // b.none
  400d64:	5400028d 	b.le	400db4 <do_binop+0x8c>
  400d68:	7100541f 	cmp	w0, #0x15
  400d6c:	54000540 	b.eq	400e14 <do_binop+0xec>  // b.none
  400d70:	71005c1f 	cmp	w0, #0x17
  400d74:	540006e1 	b.ne	400e50 <do_binop+0x128>  // b.any
  400d78:	eb02003f 	cmp	x1, x2
  400d7c:	9a9f07e0 	cset	x0, ne  // ne = any
  400d80:	d65f03c0 	ret
  400d84:	7100301f 	cmp	w0, #0xc
  400d88:	540004a1 	b.ne	400e1c <do_binop+0xf4>  // b.any
  400d8c:	eb02003f 	cmp	x1, x2
  400d90:	9a9f17e0 	cset	x0, eq  // eq = none
  400d94:	d65f03c0 	ret
  400d98:	7100241f 	cmp	w0, #0x9
  400d9c:	540004a0 	b.eq	400e30 <do_binop+0x108>  // b.none
  400da0:	7100281f 	cmp	w0, #0xa
  400da4:	54000141 	b.ne	400dcc <do_binop+0xa4>  // b.any
  400da8:	eb02003f 	cmp	x1, x2
  400dac:	9a9fa7e0 	cset	x0, lt  // lt = tstop
  400db0:	d65f03c0 	ret
  400db4:	7100481f 	cmp	w0, #0x12
  400db8:	54000420 	b.eq	400e3c <do_binop+0x114>  // b.none
  400dbc:	71004c1f 	cmp	w0, #0x13
  400dc0:	aa020020 	orr	x0, x1, x2
  400dc4:	540000e1 	b.ne	400de0 <do_binop+0xb8>  // b.any
  400dc8:	d65f03c0 	ret
  400dcc:	7100201f 	cmp	w0, #0x8
  400dd0:	54000401 	b.ne	400e50 <do_binop+0x128>  // b.any
  400dd4:	eb02003f 	cmp	x1, x2
  400dd8:	9a9fc7e0 	cset	x0, le
  400ddc:	d65f03c0 	ret
  400de0:	7100447f 	cmp	w3, #0x11
  400de4:	54000361 	b.ne	400e50 <do_binop+0x128>  // b.any
  400de8:	9b027c20 	mul	x0, x1, x2
  400dec:	d65f03c0 	ret
  400df0:	9ac22820 	asr	x0, x1, x2
  400df4:	d65f03c0 	ret
  400df8:	eb02003f 	cmp	x1, x2
  400dfc:	9a9fd7e0 	cset	x0, gt
  400e00:	d65f03c0 	ret
  400e04:	8a020020 	and	x0, x1, x2
  400e08:	d65f03c0 	ret
  400e0c:	cb020020 	sub	x0, x1, x2
  400e10:	d65f03c0 	ret
  400e14:	ca020020 	eor	x0, x1, x2
  400e18:	d65f03c0 	ret
  400e1c:	b40001c2 	cbz	x2, 400e54 <do_binop+0x12c>
  400e20:	7100341f 	cmp	w0, #0xd
  400e24:	54000100 	b.eq	400e44 <do_binop+0x11c>  // b.none
  400e28:	9ac20c20 	sdiv	x0, x1, x2
  400e2c:	d65f03c0 	ret
  400e30:	eb02003f 	cmp	x1, x2
  400e34:	9a9fb7e0 	cset	x0, ge  // ge = tcont
  400e38:	d65f03c0 	ret
  400e3c:	8b020020 	add	x0, x1, x2
  400e40:	d65f03c0 	ret
  400e44:	9ac20c20 	sdiv	x0, x1, x2
  400e48:	9b028400 	msub	x0, x0, x2, x1
  400e4c:	d65f03c0 	ret
  400e50:	b5fffec2 	cbnz	x2, 400e28 <do_binop+0x100>
  400e54:	a9bf7bfd 	stp	x29, x30, [sp, #-16]!
  400e58:	90000140 	adrp	x0, 428000 <__subtf3+0x758>
  400e5c:	9138a000 	add	x0, x0, #0xe28
  400e60:	910003fd 	mov	x29, sp
  400e64:	97ffffa7 	bl	400d00 <yyerror>

0000000000400e68 <and>:
  400e68:	a9bb7bfd 	stp	x29, x30, [sp, #-80]!
  400e6c:	2a0003e4 	mov	w4, w0
  400e70:	910003fd 	mov	x29, sp
  400e74:	a90153f3 	stp	x19, x20, [sp, #16]
  400e78:	d0000194 	adrp	x20, 432000 <signal_names+0x100>
  400e7c:	2a0203f3 	mov	w19, w2
  400e80:	a9046bf9 	stp	x25, x26, [sp, #64]
  400e84:	f947329a 	ldr	x26, [x20, #3680]
  400e88:	a9025bf5 	stp	x21, x22, [sp, #32]
  400e8c:	aa0103f6 	mov	x22, x1
  400e90:	f9478299 	ldr	x25, [x20, #3840]
  400e94:	a90363f7 	stp	x23, x24, [sp, #48]
  400e98:	2a0303f7 	mov	w23, w3
  400e9c:	d2800035 	mov	x21, #0x1                   	// #1
  400ea0:	7100489f 	cmp	w4, #0x12
  400ea4:	54000aa0 	b.eq	400ff8 <and+0x190>  // b.none
  400ea8:	5400064c 	b.gt	400f70 <and+0x108>
  400eac:	7100189f 	cmp	w4, #0x6
  400eb0:	54000e20 	b.eq	401074 <and+0x20c>  // b.none
  400eb4:	71001c9f 	cmp	w4, #0x7
  400eb8:	540004e1 	b.ne	400f54 <and+0xec>  // b.any
  400ebc:	d0000198 	adrp	x24, 432000 <signal_names+0x100>
  400ec0:	f0000199 	adrp	x25, 433000 <__dso_handle>
  400ec4:	f9473318 	ldr	x24, [x24, #3680]
  400ec8:	f9400300 	ldr	x0, [x24]
  400ecc:	d0000198 	adrp	x24, 432000 <signal_names+0x100>
  400ed0:	f90002c0 	str	x0, [x22]
  400ed4:	f9478300 	ldr	x0, [x24, #3840]
  400ed8:	d63f0000 	blr	x0
  400edc:	2a0003e2 	mov	w2, w0
  400ee0:	aa1603e1 	mov	x1, x22
  400ee4:	2a1303e0 	mov	w0, w19
  400ee8:	2a1703e3 	mov	w3, w23
  400eec:	94000149 	bl	401410 <primary>
  400ef0:	910ca321 	add	x1, x25, #0x328
  400ef4:	f100001f 	cmp	x0, #0x0
  400ef8:	9a9f17f4 	cset	x20, eq  // eq = none
  400efc:	b9400833 	ldr	w19, [x1, #8]
  400f00:	51002260 	sub	w0, w19, #0x8
  400f04:	9b147eb4 	mul	x20, x21, x20
  400f08:	71003c1f 	cmp	w0, #0xf
  400f0c:	54000128 	b.hi	400f30 <and+0xc8>  // b.pmore
  400f10:	910ca339 	add	x25, x25, #0x328
  400f14:	2a1303e1 	mov	w1, w19
  400f18:	aa1403e0 	mov	x0, x20
  400f1c:	2a1703e3 	mov	w3, w23
  400f20:	52800102 	mov	w2, #0x8                   	// #8
  400f24:	940001bf 	bl	401620 <binop2>
  400f28:	b9400b33 	ldr	w19, [x25, #8]
  400f2c:	aa0003f4 	mov	x20, x0
  400f30:	71000e7f 	cmp	w19, #0x3
  400f34:	540006e0 	b.eq	401010 <and+0x1a8>  // b.none
  400f38:	aa1403e0 	mov	x0, x20
  400f3c:	a94153f3 	ldp	x19, x20, [sp, #16]
  400f40:	a9425bf5 	ldp	x21, x22, [sp, #32]
  400f44:	a94363f7 	ldp	x23, x24, [sp, #48]
  400f48:	a9446bf9 	ldp	x25, x26, [sp, #64]
  400f4c:	a8c57bfd 	ldp	x29, x30, [sp], #80
  400f50:	d65f03c0 	ret
  400f54:	7100149f 	cmp	w4, #0x5
  400f58:	54000c61 	b.ne	4010e4 <and+0x27c>  // b.any
  400f5c:	f0000199 	adrp	x25, 433000 <__dso_handle>
  400f60:	910ca320 	add	x0, x25, #0x328
  400f64:	f94002d4 	ldr	x20, [x22]
  400f68:	b9000813 	str	w19, [x0, #8]
  400f6c:	17ffffe5 	b	400f00 <and+0x98>
  400f70:	7100889f 	cmp	w4, #0x22
  400f74:	540009a0 	b.eq	4010a8 <and+0x240>  // b.none
  400f78:	7100909f 	cmp	w4, #0x24
  400f7c:	54000241 	b.ne	400fc4 <and+0x15c>  // b.any
  400f80:	d0000198 	adrp	x24, 432000 <signal_names+0x100>
  400f84:	f0000199 	adrp	x25, 433000 <__dso_handle>
  400f88:	f9473318 	ldr	x24, [x24, #3680]
  400f8c:	f9400300 	ldr	x0, [x24]
  400f90:	d0000198 	adrp	x24, 432000 <signal_names+0x100>
  400f94:	f90002c0 	str	x0, [x22]
  400f98:	f9478300 	ldr	x0, [x24, #3840]
  400f9c:	d63f0000 	blr	x0
  400fa0:	2a0003e2 	mov	w2, w0
  400fa4:	aa1603e1 	mov	x1, x22
  400fa8:	2a1303e0 	mov	w0, w19
  400fac:	2a1703e3 	mov	w3, w23
  400fb0:	94000118 	bl	401410 <primary>
  400fb4:	910ca321 	add	x1, x25, #0x328
  400fb8:	aa2003f4 	mvn	x20, x0
  400fbc:	b9400833 	ldr	w19, [x1, #8]
  400fc0:	17ffffd0 	b	400f00 <and+0x98>
  400fc4:	7100509f 	cmp	w4, #0x14
  400fc8:	540008e1 	b.ne	4010e4 <and+0x27c>  // b.any
  400fcc:	f9473280 	ldr	x0, [x20, #3680]
  400fd0:	d0000198 	adrp	x24, 432000 <signal_names+0x100>
  400fd4:	cb1503f5 	neg	x21, x21
  400fd8:	f9400000 	ldr	x0, [x0]
  400fdc:	f90002c0 	str	x0, [x22]
  400fe0:	f9478300 	ldr	x0, [x24, #3840]
  400fe4:	d63f0000 	blr	x0
  400fe8:	2a1303e4 	mov	w4, w19
  400fec:	2a0003f3 	mov	w19, w0
  400ff0:	7100489f 	cmp	w4, #0x12
  400ff4:	54fff5a1 	b.ne	400ea8 <and+0x40>  // b.any
  400ff8:	f9400340 	ldr	x0, [x26]
  400ffc:	f90002c0 	str	x0, [x22]
  401000:	d63f0320 	blr	x25
  401004:	2a1303e4 	mov	w4, w19
  401008:	2a0003f3 	mov	w19, w0
  40100c:	17ffffa5 	b	400ea0 <and+0x38>
  401010:	b0000198 	adrp	x24, 432000 <signal_names+0x100>
  401014:	f9478315 	ldr	x21, [x24, #3840]
  401018:	d63f02a0 	blr	x21
  40101c:	2a0003f3 	mov	w19, w0
  401020:	f9473318 	ldr	x24, [x24, #3680]
  401024:	f9400300 	ldr	x0, [x24]
  401028:	f90002c0 	str	x0, [x22]
  40102c:	d63f02a0 	blr	x21
  401030:	2a0003e2 	mov	w2, w0
  401034:	f100029f 	cmp	x20, #0x0
  401038:	aa1603e1 	mov	x1, x22
  40103c:	1a9f17e3 	cset	w3, eq  // eq = none
  401040:	2a1303e0 	mov	w0, w19
  401044:	2a170063 	orr	w3, w3, w23
  401048:	97ffff88 	bl	400e68 <and>
  40104c:	f100029f 	cmp	x20, #0x0
  401050:	fa401804 	ccmp	x0, #0x0, #0x4, ne  // ne = any
  401054:	9a9f07f4 	cset	x20, ne  // ne = any
  401058:	aa1403e0 	mov	x0, x20
  40105c:	a94153f3 	ldp	x19, x20, [sp, #16]
  401060:	a9425bf5 	ldp	x21, x22, [sp, #32]
  401064:	a94363f7 	ldp	x23, x24, [sp, #48]
  401068:	a9446bf9 	ldp	x25, x26, [sp, #64]
  40106c:	a8c57bfd 	ldp	x29, x30, [sp], #80
  401070:	d65f03c0 	ret
  401074:	d0000199 	adrp	x25, 433000 <__dso_handle>
  401078:	910ca334 	add	x20, x25, #0x328
  40107c:	f94002c0 	ldr	x0, [x22]
  401080:	b9000a93 	str	w19, [x20, #8]
  401084:	34000077 	cbz	w23, 401090 <and+0x228>
  401088:	aa0003f4 	mov	x20, x0
  40108c:	17ffff9d 	b	400f00 <and+0x98>
  401090:	b0000198 	adrp	x24, 432000 <signal_names+0x100>
  401094:	f9444301 	ldr	x1, [x24, #2176]
  401098:	d63f0020 	blr	x1
  40109c:	b9400a93 	ldr	w19, [x20, #8]
  4010a0:	aa0003f4 	mov	x20, x0
  4010a4:	17ffff97 	b	400f00 <and+0x98>
  4010a8:	d0000199 	adrp	x25, 433000 <__dso_handle>
  4010ac:	910ca33a 	add	x26, x25, #0x328
  4010b0:	2a1703e1 	mov	w1, w23
  4010b4:	2a1303e0 	mov	w0, w19
  4010b8:	94000088 	bl	4012d8 <assignment>
  4010bc:	aa0003f4 	mov	x20, x0
  4010c0:	b9400b41 	ldr	w1, [x26, #8]
  4010c4:	71008c3f 	cmp	w1, #0x23
  4010c8:	54000141 	b.ne	4010f0 <and+0x288>  // b.any
  4010cc:	b0000198 	adrp	x24, 432000 <signal_names+0x100>
  4010d0:	f9478300 	ldr	x0, [x24, #3840]
  4010d4:	d63f0000 	blr	x0
  4010d8:	2a0003f3 	mov	w19, w0
  4010dc:	b9000b40 	str	w0, [x26, #8]
  4010e0:	17ffff88 	b	400f00 <and+0x98>
  4010e4:	f0000120 	adrp	x0, 428000 <__subtf3+0x758>
  4010e8:	91394000 	add	x0, x0, #0xe50
  4010ec:	97ffff05 	bl	400d00 <yyerror>
  4010f0:	f0000120 	adrp	x0, 428000 <__subtf3+0x758>
  4010f4:	91390000 	add	x0, x0, #0xe40
  4010f8:	97ffff02 	bl	400d00 <yyerror>
  4010fc:	d503201f 	nop

0000000000401100 <cond>:
  401100:	a9bb7bfd 	stp	x29, x30, [sp, #-80]!
  401104:	910003fd 	mov	x29, sp
  401108:	a9025bf5 	stp	x21, x22, [sp, #32]
  40110c:	2a0303f6 	mov	w22, w3
  401110:	a90363f7 	stp	x23, x24, [sp, #48]
  401114:	d0000197 	adrp	x23, 433000 <__dso_handle>
  401118:	910ca2f5 	add	x21, x23, #0x328
  40111c:	a90153f3 	stp	x19, x20, [sp, #16]
  401120:	aa0103f4 	mov	x20, x1
  401124:	940000bb 	bl	401410 <primary>
  401128:	b9400aa1 	ldr	w1, [x21, #8]
  40112c:	aa0003f3 	mov	x19, x0
  401130:	51002022 	sub	w2, w1, #0x8
  401134:	71003c5f 	cmp	w2, #0xf
  401138:	540000c8 	b.hi	401150 <cond+0x50>  // b.pmore
  40113c:	2a1603e3 	mov	w3, w22
  401140:	52800102 	mov	w2, #0x8                   	// #8
  401144:	94000137 	bl	401620 <binop2>
  401148:	aa0003f3 	mov	x19, x0
  40114c:	b9400aa1 	ldr	w1, [x21, #8]
  401150:	71000c3f 	cmp	w1, #0x3
  401154:	54000160 	b.eq	401180 <cond+0x80>  // b.none
  401158:	7100083f 	cmp	w1, #0x2
  40115c:	54000420 	b.eq	4011e0 <cond+0xe0>  // b.none
  401160:	7100943f 	cmp	w1, #0x25
  401164:	540006e0 	b.eq	401240 <cond+0x140>  // b.none
  401168:	aa1303e0 	mov	x0, x19
  40116c:	a94153f3 	ldp	x19, x20, [sp, #16]
  401170:	a9425bf5 	ldp	x21, x22, [sp, #32]
  401174:	a94363f7 	ldp	x23, x24, [sp, #48]
  401178:	a8c57bfd 	ldp	x29, x30, [sp], #80
  40117c:	d65f03c0 	ret
  401180:	b0000195 	adrp	x21, 432000 <signal_names+0x100>
  401184:	f90023f9 	str	x25, [sp, #64]
  401188:	f94782b9 	ldr	x25, [x21, #3840]
  40118c:	d63f0320 	blr	x25
  401190:	2a0003f8 	mov	w24, w0
  401194:	f94732b5 	ldr	x21, [x21, #3680]
  401198:	f94002a0 	ldr	x0, [x21]
  40119c:	f9000280 	str	x0, [x20]
  4011a0:	d63f0320 	blr	x25
  4011a4:	2a0003e2 	mov	w2, w0
  4011a8:	f100027f 	cmp	x19, #0x0
  4011ac:	aa1403e1 	mov	x1, x20
  4011b0:	1a9f17e3 	cset	w3, eq  // eq = none
  4011b4:	2a1803e0 	mov	w0, w24
  4011b8:	2a160063 	orr	w3, w3, w22
  4011bc:	97ffff2b 	bl	400e68 <and>
  4011c0:	910ca2e1 	add	x1, x23, #0x328
  4011c4:	f100027f 	cmp	x19, #0x0
  4011c8:	fa401804 	ccmp	x0, #0x0, #0x4, ne  // ne = any
  4011cc:	9a9f07f3 	cset	x19, ne  // ne = any
  4011d0:	b9400821 	ldr	w1, [x1, #8]
  4011d4:	f94023f9 	ldr	x25, [sp, #64]
  4011d8:	7100083f 	cmp	w1, #0x2
  4011dc:	54fffc21 	b.ne	401160 <cond+0x60>  // b.any
  4011e0:	b0000195 	adrp	x21, 432000 <signal_names+0x100>
  4011e4:	f90023f9 	str	x25, [sp, #64]
  4011e8:	f94782b9 	ldr	x25, [x21, #3840]
  4011ec:	d63f0320 	blr	x25
  4011f0:	2a0003f8 	mov	w24, w0
  4011f4:	f94732b5 	ldr	x21, [x21, #3680]
  4011f8:	f94002a0 	ldr	x0, [x21]
  4011fc:	f9000280 	str	x0, [x20]
  401200:	d63f0320 	blr	x25
  401204:	2a0003e2 	mov	w2, w0
  401208:	f100027f 	cmp	x19, #0x0
  40120c:	aa1403e1 	mov	x1, x20
  401210:	1a9f07e3 	cset	w3, ne  // ne = any
  401214:	2a1803e0 	mov	w0, w24
  401218:	2a160063 	orr	w3, w3, w22
  40121c:	940001e3 	bl	4019a8 <or>
  401220:	aa130000 	orr	x0, x0, x19
  401224:	910ca2e1 	add	x1, x23, #0x328
  401228:	f100001f 	cmp	x0, #0x0
  40122c:	9a9f07f3 	cset	x19, ne  // ne = any
  401230:	f94023f9 	ldr	x25, [sp, #64]
  401234:	b9400821 	ldr	w1, [x1, #8]
  401238:	7100943f 	cmp	w1, #0x25
  40123c:	54fff961 	b.ne	401168 <cond+0x68>  // b.any
  401240:	b0000195 	adrp	x21, 432000 <signal_names+0x100>
  401244:	f90023f9 	str	x25, [sp, #64]
  401248:	910ca2f7 	add	x23, x23, #0x328
  40124c:	f94782b9 	ldr	x25, [x21, #3840]
  401250:	d63f0320 	blr	x25
  401254:	f100027f 	cmp	x19, #0x0
  401258:	1a9f17e1 	cset	w1, eq  // eq = none
  40125c:	2a160021 	orr	w1, w1, w22
  401260:	9400001e 	bl	4012d8 <assignment>
  401264:	aa0003f8 	mov	x24, x0
  401268:	b9400ae0 	ldr	w0, [x23, #8]
  40126c:	7100981f 	cmp	w0, #0x26
  401270:	540002e1 	b.ne	4012cc <cond+0x1cc>  // b.any
  401274:	d63f0320 	blr	x25
  401278:	2a0003f7 	mov	w23, w0
  40127c:	f94732b5 	ldr	x21, [x21, #3680]
  401280:	f94002a0 	ldr	x0, [x21]
  401284:	f9000280 	str	x0, [x20]
  401288:	d63f0320 	blr	x25
  40128c:	2a0003e2 	mov	w2, w0
  401290:	f100027f 	cmp	x19, #0x0
  401294:	aa1403e1 	mov	x1, x20
  401298:	1a9f07e3 	cset	w3, ne  // ne = any
  40129c:	2a1703e0 	mov	w0, w23
  4012a0:	2a160063 	orr	w3, w3, w22
  4012a4:	97ffff97 	bl	401100 <cond>
  4012a8:	f100027f 	cmp	x19, #0x0
  4012ac:	9a980013 	csel	x19, x0, x24, eq  // eq = none
  4012b0:	aa1303e0 	mov	x0, x19
  4012b4:	a94153f3 	ldp	x19, x20, [sp, #16]
  4012b8:	a9425bf5 	ldp	x21, x22, [sp, #32]
  4012bc:	a94363f7 	ldp	x23, x24, [sp, #48]
  4012c0:	f94023f9 	ldr	x25, [sp, #64]
  4012c4:	a8c57bfd 	ldp	x29, x30, [sp], #80
  4012c8:	d65f03c0 	ret
  4012cc:	f0000120 	adrp	x0, 428000 <__subtf3+0x758>
  4012d0:	9139a000 	add	x0, x0, #0xe68
  4012d4:	97fffe8b 	bl	400d00 <yyerror>

00000000004012d8 <assignment>:
  4012d8:	a9bb7bfd 	stp	x29, x30, [sp, #-80]!
  4012dc:	910003fd 	mov	x29, sp
  4012e0:	a90153f3 	stp	x19, x20, [sp, #16]
  4012e4:	b0000193 	adrp	x19, 432000 <signal_names+0x100>
  4012e8:	2a0003f4 	mov	w20, w0
  4012ec:	f9473260 	ldr	x0, [x19, #3680]
  4012f0:	a9025bf5 	stp	x21, x22, [sp, #32]
  4012f4:	2a0103f6 	mov	w22, w1
  4012f8:	f943d261 	ldr	x1, [x19, #1952]
  4012fc:	f9400000 	ldr	x0, [x0]
  401300:	f9400022 	ldr	x2, [x1]
  401304:	f90027e2 	str	x2, [sp, #72]
  401308:	d2800002 	mov	x2, #0x0                   	// #0
  40130c:	f9001bf7 	str	x23, [sp, #48]
  401310:	f9478277 	ldr	x23, [x19, #3840]
  401314:	f90023e0 	str	x0, [sp, #64]
  401318:	d63f02e0 	blr	x23
  40131c:	2a0003f5 	mov	w21, w0
  401320:	71001a9f 	cmp	w20, #0x6
  401324:	540002a1 	b.ne	401378 <assignment+0xa0>  // b.any
  401328:	51006000 	sub	w0, w0, #0x18
  40132c:	7100241f 	cmp	w0, #0x9
  401330:	7a418aa4 	ccmp	w21, #0x1, #0x4, hi  // hi = pmore
  401334:	54000221 	b.ne	401378 <assignment+0xa0>  // b.any
  401338:	d63f02e0 	blr	x23
  40133c:	2a1603e1 	mov	w1, w22
  401340:	97ffffe6 	bl	4012d8 <assignment>
  401344:	aa0003f4 	mov	x20, x0
  401348:	35000256 	cbnz	w22, 401390 <assignment+0xb8>
  40134c:	710006bf 	cmp	w21, #0x1
  401350:	f94023f6 	ldr	x22, [sp, #64]
  401354:	54000381 	b.ne	4013c4 <assignment+0xec>  // b.any
  401358:	b0000183 	adrp	x3, 432000 <signal_names+0x100>
  40135c:	aa1403e1 	mov	x1, x20
  401360:	aa1603e0 	mov	x0, x22
  401364:	52800002 	mov	w2, #0x0                   	// #0
  401368:	f9447463 	ldr	x3, [x3, #2280]
  40136c:	d63f0060 	blr	x3
  401370:	aa0003f4 	mov	x20, x0
  401374:	14000007 	b	401390 <assignment+0xb8>
  401378:	2a1403e0 	mov	w0, w20
  40137c:	2a1603e3 	mov	w3, w22
  401380:	2a1503e2 	mov	w2, w21
  401384:	910103e1 	add	x1, sp, #0x40
  401388:	97ffff5e 	bl	401100 <cond>
  40138c:	aa0003f4 	mov	x20, x0
  401390:	f943d273 	ldr	x19, [x19, #1952]
  401394:	b0000183 	adrp	x3, 432000 <signal_names+0x100>
  401398:	f94027e0 	ldr	x0, [sp, #72]
  40139c:	f9400261 	ldr	x1, [x19]
  4013a0:	eb010000 	subs	x0, x0, x1
  4013a4:	d2800001 	mov	x1, #0x0                   	// #0
  4013a8:	54000301 	b.ne	401408 <assignment+0x130>  // b.any
  4013ac:	aa1403e0 	mov	x0, x20
  4013b0:	a94153f3 	ldp	x19, x20, [sp, #16]
  4013b4:	a9425bf5 	ldp	x21, x22, [sp, #32]
  4013b8:	f9401bf7 	ldr	x23, [sp, #48]
  4013bc:	a8c57bfd 	ldp	x29, x30, [sp], #80
  4013c0:	d65f03c0 	ret
  4013c4:	b0000183 	adrp	x3, 432000 <signal_names+0x100>
  4013c8:	aa1603e0 	mov	x0, x22
  4013cc:	f9444061 	ldr	x1, [x3, #2176]
  4013d0:	d63f0020 	blr	x1
  4013d4:	aa0003e1 	mov	x1, x0
  4013d8:	aa1403e2 	mov	x2, x20
  4013dc:	51002ea0 	sub	w0, w21, #0xb
  4013e0:	97fffe52 	bl	400d28 <do_binop>
  4013e4:	aa0003f4 	mov	x20, x0
  4013e8:	b0000183 	adrp	x3, 432000 <signal_names+0x100>
  4013ec:	aa1403e1 	mov	x1, x20
  4013f0:	aa1603e0 	mov	x0, x22
  4013f4:	52800002 	mov	w2, #0x0                   	// #0
  4013f8:	f9447463 	ldr	x3, [x3, #2280]
  4013fc:	d63f0060 	blr	x3
  401400:	aa0003f4 	mov	x20, x0
  401404:	17ffffe3 	b	401390 <assignment+0xb8>
  401408:	f944cc60 	ldr	x0, [x3, #2456]
  40140c:	d63f0000 	blr	x0

0000000000401410 <primary>:
  401410:	a9bb7bfd 	stp	x29, x30, [sp, #-80]!
  401414:	2a0003e4 	mov	w4, w0
  401418:	910003fd 	mov	x29, sp
  40141c:	a90363f7 	stp	x23, x24, [sp, #48]
  401420:	b0000197 	adrp	x23, 432000 <signal_names+0x100>
  401424:	f94782f8 	ldr	x24, [x23, #3840]
  401428:	f90023f9 	str	x25, [sp, #64]
  40142c:	f94732f9 	ldr	x25, [x23, #3680]
  401430:	a90153f3 	stp	x19, x20, [sp, #16]
  401434:	aa0103f4 	mov	x20, x1
  401438:	2a0203f3 	mov	w19, w2
  40143c:	a9025bf5 	stp	x21, x22, [sp, #32]
  401440:	2a0303f5 	mov	w21, w3
  401444:	d2800036 	mov	x22, #0x1                   	// #1
  401448:	7100489f 	cmp	w4, #0x12
  40144c:	54000960 	b.eq	401578 <primary+0x168>  // b.none
  401450:	540004ac 	b.gt	4014e4 <primary+0xd4>
  401454:	7100189f 	cmp	w4, #0x6
  401458:	540009c0 	b.eq	401590 <primary+0x180>  // b.none
  40145c:	71001c9f 	cmp	w4, #0x7
  401460:	540002a1 	b.ne	4014b4 <primary+0xa4>  // b.any
  401464:	b0000182 	adrp	x2, 432000 <signal_names+0x100>
  401468:	f9473040 	ldr	x0, [x2, #3680]
  40146c:	f9400000 	ldr	x0, [x0]
  401470:	f9000280 	str	x0, [x20]
  401474:	f9478040 	ldr	x0, [x2, #3840]
  401478:	d63f0000 	blr	x0
  40147c:	2a0003e2 	mov	w2, w0
  401480:	aa1403e1 	mov	x1, x20
  401484:	2a1503e3 	mov	w3, w21
  401488:	2a1303e0 	mov	w0, w19
  40148c:	97ffffe1 	bl	401410 <primary>
  401490:	f100001f 	cmp	x0, #0x0
  401494:	9a9f17f4 	cset	x20, eq  // eq = none
  401498:	9b167e80 	mul	x0, x20, x22
  40149c:	a94153f3 	ldp	x19, x20, [sp, #16]
  4014a0:	a9425bf5 	ldp	x21, x22, [sp, #32]
  4014a4:	a94363f7 	ldp	x23, x24, [sp, #48]
  4014a8:	f94023f9 	ldr	x25, [sp, #64]
  4014ac:	a8c57bfd 	ldp	x29, x30, [sp], #80
  4014b0:	d65f03c0 	ret
  4014b4:	7100149f 	cmp	w4, #0x5
  4014b8:	54000a81 	b.ne	401608 <primary+0x1f8>  // b.any
  4014bc:	f9400294 	ldr	x20, [x20]
  4014c0:	d0000180 	adrp	x0, 433000 <__dso_handle>
  4014c4:	a94363f7 	ldp	x23, x24, [sp, #48]
  4014c8:	b9033013 	str	w19, [x0, #816]
  4014cc:	9b167e80 	mul	x0, x20, x22
  4014d0:	a94153f3 	ldp	x19, x20, [sp, #16]
  4014d4:	a9425bf5 	ldp	x21, x22, [sp, #32]
  4014d8:	f94023f9 	ldr	x25, [sp, #64]
  4014dc:	a8c57bfd 	ldp	x29, x30, [sp], #80
  4014e0:	d65f03c0 	ret
  4014e4:	7100889f 	cmp	w4, #0x22
  4014e8:	54000680 	b.eq	4015b8 <primary+0x1a8>  // b.none
  4014ec:	7100909f 	cmp	w4, #0x24
  4014f0:	54000281 	b.ne	401540 <primary+0x130>  // b.any
  4014f4:	b0000182 	adrp	x2, 432000 <signal_names+0x100>
  4014f8:	f9473040 	ldr	x0, [x2, #3680]
  4014fc:	f9400000 	ldr	x0, [x0]
  401500:	f9000280 	str	x0, [x20]
  401504:	f9478040 	ldr	x0, [x2, #3840]
  401508:	d63f0000 	blr	x0
  40150c:	2a0003e2 	mov	w2, w0
  401510:	2a1503e3 	mov	w3, w21
  401514:	aa1403e1 	mov	x1, x20
  401518:	2a1303e0 	mov	w0, w19
  40151c:	97ffffbd 	bl	401410 <primary>
  401520:	aa2003f4 	mvn	x20, x0
  401524:	a94363f7 	ldp	x23, x24, [sp, #48]
  401528:	9b167e80 	mul	x0, x20, x22
  40152c:	a94153f3 	ldp	x19, x20, [sp, #16]
  401530:	a9425bf5 	ldp	x21, x22, [sp, #32]
  401534:	f94023f9 	ldr	x25, [sp, #64]
  401538:	a8c57bfd 	ldp	x29, x30, [sp], #80
  40153c:	d65f03c0 	ret
  401540:	7100509f 	cmp	w4, #0x14
  401544:	54000621 	b.ne	401608 <primary+0x1f8>  // b.any
  401548:	f94732e1 	ldr	x1, [x23, #3680]
  40154c:	b0000182 	adrp	x2, 432000 <signal_names+0x100>
  401550:	cb1603f6 	neg	x22, x22
  401554:	f9400020 	ldr	x0, [x1]
  401558:	f9000280 	str	x0, [x20]
  40155c:	f9478040 	ldr	x0, [x2, #3840]
  401560:	d63f0000 	blr	x0
  401564:	2a1303e4 	mov	w4, w19
  401568:	2a0003f3 	mov	w19, w0
  40156c:	7100489f 	cmp	w4, #0x12
  401570:	54fff701 	b.ne	401450 <primary+0x40>  // b.any
  401574:	d503201f 	nop
  401578:	f9400320 	ldr	x0, [x25]
  40157c:	f9000280 	str	x0, [x20]
  401580:	d63f0300 	blr	x24
  401584:	2a1303e4 	mov	w4, w19
  401588:	2a0003f3 	mov	w19, w0
  40158c:	17ffffaf 	b	401448 <primary+0x38>
  401590:	d0000181 	adrp	x1, 433000 <__dso_handle>
  401594:	f9400294 	ldr	x20, [x20]
  401598:	b9033033 	str	w19, [x1, #816]
  40159c:	35fff7f5 	cbnz	w21, 401498 <primary+0x88>
  4015a0:	b0000182 	adrp	x2, 432000 <signal_names+0x100>
  4015a4:	aa1403e0 	mov	x0, x20
  4015a8:	f9444041 	ldr	x1, [x2, #2176]
  4015ac:	d63f0020 	blr	x1
  4015b0:	aa0003f4 	mov	x20, x0
  4015b4:	17ffffb9 	b	401498 <primary+0x88>
  4015b8:	2a1303e0 	mov	w0, w19
  4015bc:	d0000193 	adrp	x19, 433000 <__dso_handle>
  4015c0:	910ca273 	add	x19, x19, #0x328
  4015c4:	2a1503e1 	mov	w1, w21
  4015c8:	97ffff44 	bl	4012d8 <assignment>
  4015cc:	aa0003f4 	mov	x20, x0
  4015d0:	b9400a60 	ldr	w0, [x19, #8]
  4015d4:	71008c1f 	cmp	w0, #0x23
  4015d8:	540001e1 	b.ne	401614 <primary+0x204>  // b.any
  4015dc:	b0000182 	adrp	x2, 432000 <signal_names+0x100>
  4015e0:	f9478040 	ldr	x0, [x2, #3840]
  4015e4:	d63f0000 	blr	x0
  4015e8:	b9000a60 	str	w0, [x19, #8]
  4015ec:	9b167e80 	mul	x0, x20, x22
  4015f0:	a94153f3 	ldp	x19, x20, [sp, #16]
  4015f4:	a9425bf5 	ldp	x21, x22, [sp, #32]
  4015f8:	a94363f7 	ldp	x23, x24, [sp, #48]
  4015fc:	f94023f9 	ldr	x25, [sp, #64]
  401600:	a8c57bfd 	ldp	x29, x30, [sp], #80
  401604:	d65f03c0 	ret
  401608:	f0000120 	adrp	x0, 428000 <__subtf3+0x758>
  40160c:	91394000 	add	x0, x0, #0xe50
  401610:	97fffdbc 	bl	400d00 <yyerror>
  401614:	f0000120 	adrp	x0, 428000 <__subtf3+0x758>
  401618:	91390000 	add	x0, x0, #0xe40
  40161c:	97fffdb9 	bl	400d00 <yyerror>

0000000000401620 <binop2>:
  401620:	a9b87bfd 	stp	x29, x30, [sp, #-128]!
  401624:	910003fd 	mov	x29, sp
  401628:	a90153f3 	stp	x19, x20, [sp, #16]
  40162c:	b0000194 	adrp	x20, 432000 <signal_names+0x100>
  401630:	f943d284 	ldr	x4, [x20, #1952]
  401634:	a9025bf5 	stp	x21, x22, [sp, #32]
  401638:	aa0003f5 	mov	x21, x0
  40163c:	f9473285 	ldr	x5, [x20, #3680]
  401640:	2a0303f6 	mov	w22, w3
  401644:	f9400080 	ldr	x0, [x4]
  401648:	f9003fe0 	str	x0, [sp, #120]
  40164c:	d2800000 	mov	x0, #0x0                   	// #0
  401650:	a90363f7 	stp	x23, x24, [sp, #48]
  401654:	2a0103f8 	mov	w24, w1
  401658:	a9046bf9 	stp	x25, x26, [sp, #64]
  40165c:	2a0203f9 	mov	w25, w2
  401660:	a90573fb 	stp	x27, x28, [sp, #80]
  401664:	9101c3fb 	add	x27, sp, #0x70
  401668:	f90037e5 	str	x5, [sp, #104]
  40166c:	f9478281 	ldr	x1, [x20, #3840]
  401670:	d2800037 	mov	x23, #0x1                   	// #1
  401674:	aa0103fc 	mov	x28, x1
  401678:	aa0103fa 	mov	x26, x1
  40167c:	d63f0020 	blr	x1
  401680:	2a0003f3 	mov	w19, w0
  401684:	f9473282 	ldr	x2, [x20, #3680]
  401688:	f9400040 	ldr	x0, [x2]
  40168c:	f9003be0 	str	x0, [sp, #112]
  401690:	d63f0380 	blr	x28
  401694:	2a0003fc 	mov	w28, w0
  401698:	71004a7f 	cmp	w19, #0x12
  40169c:	54000de0 	b.eq	401858 <binop2+0x238>  // b.none
  4016a0:	5400066c 	b.gt	40176c <binop2+0x14c>
  4016a4:	71001a7f 	cmp	w19, #0x6
  4016a8:	54000e60 	b.eq	401874 <binop2+0x254>  // b.none
  4016ac:	71001e7f 	cmp	w19, #0x7
  4016b0:	54000aa1 	b.ne	401804 <binop2+0x1e4>  // b.any
  4016b4:	f9473280 	ldr	x0, [x20, #3680]
  4016b8:	b0000182 	adrp	x2, 432000 <signal_names+0x100>
  4016bc:	d000019a 	adrp	x26, 433000 <__dso_handle>
  4016c0:	f9400000 	ldr	x0, [x0]
  4016c4:	f9003be0 	str	x0, [sp, #112]
  4016c8:	f9478040 	ldr	x0, [x2, #3840]
  4016cc:	d63f0000 	blr	x0
  4016d0:	2a0003e2 	mov	w2, w0
  4016d4:	aa1b03e1 	mov	x1, x27
  4016d8:	2a1c03e0 	mov	w0, w28
  4016dc:	2a1603e3 	mov	w3, w22
  4016e0:	97ffff4c 	bl	401410 <primary>
  4016e4:	910ca341 	add	x1, x26, #0x328
  4016e8:	f100001f 	cmp	x0, #0x0
  4016ec:	9a9f17f3 	cset	x19, eq  // eq = none
  4016f0:	b940083c 	ldr	w28, [x1, #8]
  4016f4:	51002385 	sub	w5, w28, #0x8
  4016f8:	9b137ee0 	mul	x0, x23, x19
  4016fc:	71003cbf 	cmp	w5, #0xf
  401700:	54000648 	b.hi	4017c8 <binop2+0x1a8>  // b.pmore
  401704:	51002303 	sub	w3, w24, #0x8
  401708:	f0000122 	adrp	x2, 428000 <__subtf3+0x758>
  40170c:	913a4042 	add	x2, x2, #0xe90
  401710:	3865c841 	ldrb	w1, [x2, w5, sxtw]
  401714:	3863c842 	ldrb	w2, [x2, w3, sxtw]
  401718:	6b01005f 	cmp	w2, w1
  40171c:	54000ce8 	b.hi	4018b8 <binop2+0x298>  // b.pmore
  401720:	34000576 	cbz	w22, 4017cc <binop2+0x1ac>
  401724:	aa0003f5 	mov	x21, x0
  401728:	2a1c03f8 	mov	w24, w28
  40172c:	6b01033f 	cmp	w25, w1
  401730:	54fff9ec 	b.gt	40166c <binop2+0x4c>
  401734:	aa1503e0 	mov	x0, x21
  401738:	f943d294 	ldr	x20, [x20, #1952]
  40173c:	f9403fe1 	ldr	x1, [sp, #120]
  401740:	f9400282 	ldr	x2, [x20]
  401744:	eb020021 	subs	x1, x1, x2
  401748:	d2800002 	mov	x2, #0x0                   	// #0
  40174c:	54001261 	b.ne	401998 <binop2+0x378>  // b.any
  401750:	a94153f3 	ldp	x19, x20, [sp, #16]
  401754:	a9425bf5 	ldp	x21, x22, [sp, #32]
  401758:	a94363f7 	ldp	x23, x24, [sp, #48]
  40175c:	a9446bf9 	ldp	x25, x26, [sp, #64]
  401760:	a94573fb 	ldp	x27, x28, [sp, #80]
  401764:	a8c87bfd 	ldp	x29, x30, [sp], #128
  401768:	d65f03c0 	ret
  40176c:	71008a7f 	cmp	w19, #0x22
  401770:	54000b80 	b.eq	4018e0 <binop2+0x2c0>  // b.none
  401774:	7100927f 	cmp	w19, #0x24
  401778:	54000541 	b.ne	401820 <binop2+0x200>  // b.any
  40177c:	f9473280 	ldr	x0, [x20, #3680]
  401780:	b0000182 	adrp	x2, 432000 <signal_names+0x100>
  401784:	d000019a 	adrp	x26, 433000 <__dso_handle>
  401788:	f9400000 	ldr	x0, [x0]
  40178c:	f9003be0 	str	x0, [sp, #112]
  401790:	f9478040 	ldr	x0, [x2, #3840]
  401794:	d63f0000 	blr	x0
  401798:	2a0003e2 	mov	w2, w0
  40179c:	aa1b03e1 	mov	x1, x27
  4017a0:	2a1c03e0 	mov	w0, w28
  4017a4:	2a1603e3 	mov	w3, w22
  4017a8:	97ffff1a 	bl	401410 <primary>
  4017ac:	910ca341 	add	x1, x26, #0x328
  4017b0:	aa2003f3 	mvn	x19, x0
  4017b4:	b940083c 	ldr	w28, [x1, #8]
  4017b8:	9b137ee0 	mul	x0, x23, x19
  4017bc:	51002385 	sub	w5, w28, #0x8
  4017c0:	71003cbf 	cmp	w5, #0xf
  4017c4:	54fffa09 	b.ls	401704 <binop2+0xe4>  // b.plast
  4017c8:	35fffb96 	cbnz	w22, 401738 <binop2+0x118>
  4017cc:	aa0003e2 	mov	x2, x0
  4017d0:	aa1503e1 	mov	x1, x21
  4017d4:	2a1803e0 	mov	w0, w24
  4017d8:	b90063e5 	str	w5, [sp, #96]
  4017dc:	97fffd53 	bl	400d28 <do_binop>
  4017e0:	2a1c03f8 	mov	w24, w28
  4017e4:	b94063e5 	ldr	w5, [sp, #96]
  4017e8:	aa0003f5 	mov	x21, x0
  4017ec:	71003cbf 	cmp	w5, #0xf
  4017f0:	54fffa28 	b.hi	401734 <binop2+0x114>  // b.pmore
  4017f4:	f0000120 	adrp	x0, 428000 <__subtf3+0x758>
  4017f8:	913a4000 	add	x0, x0, #0xe90
  4017fc:	3865c801 	ldrb	w1, [x0, w5, sxtw]
  401800:	17ffffcb 	b	40172c <binop2+0x10c>
  401804:	7100167f 	cmp	w19, #0x5
  401808:	54000bc1 	b.ne	401980 <binop2+0x360>  // b.any
  40180c:	d000019a 	adrp	x26, 433000 <__dso_handle>
  401810:	910ca340 	add	x0, x26, #0x328
  401814:	f9403bf3 	ldr	x19, [sp, #112]
  401818:	b900081c 	str	w28, [x0, #8]
  40181c:	17ffffb6 	b	4016f4 <binop2+0xd4>
  401820:	7100527f 	cmp	w19, #0x14
  401824:	54000ae1 	b.ne	401980 <binop2+0x360>  // b.any
  401828:	f9473280 	ldr	x0, [x20, #3680]
  40182c:	b0000182 	adrp	x2, 432000 <signal_names+0x100>
  401830:	2a1c03f3 	mov	w19, w28
  401834:	cb1703f7 	neg	x23, x23
  401838:	f9400000 	ldr	x0, [x0]
  40183c:	f9003be0 	str	x0, [sp, #112]
  401840:	f9478040 	ldr	x0, [x2, #3840]
  401844:	d63f0000 	blr	x0
  401848:	2a0003fc 	mov	w28, w0
  40184c:	71004a7f 	cmp	w19, #0x12
  401850:	54fff281 	b.ne	4016a0 <binop2+0x80>  // b.any
  401854:	d503201f 	nop
  401858:	f94037e0 	ldr	x0, [sp, #104]
  40185c:	2a1c03f3 	mov	w19, w28
  401860:	f9400000 	ldr	x0, [x0]
  401864:	f9003be0 	str	x0, [sp, #112]
  401868:	d63f0340 	blr	x26
  40186c:	2a0003fc 	mov	w28, w0
  401870:	17ffff8a 	b	401698 <binop2+0x78>
  401874:	d000019a 	adrp	x26, 433000 <__dso_handle>
  401878:	910ca353 	add	x19, x26, #0x328
  40187c:	f9403be0 	ldr	x0, [sp, #112]
  401880:	b9000a7c 	str	w28, [x19, #8]
  401884:	34000556 	cbz	w22, 40192c <binop2+0x30c>
  401888:	51002381 	sub	w1, w28, #0x8
  40188c:	9b177c00 	mul	x0, x0, x23
  401890:	71003c3f 	cmp	w1, #0xf
  401894:	54fff528 	b.hi	401738 <binop2+0x118>  // b.pmore
  401898:	51002303 	sub	w3, w24, #0x8
  40189c:	f0000122 	adrp	x2, 428000 <__subtf3+0x758>
  4018a0:	913a4042 	add	x2, x2, #0xe90
  4018a4:	3861c841 	ldrb	w1, [x2, w1, sxtw]
  4018a8:	3863c842 	ldrb	w2, [x2, w3, sxtw]
  4018ac:	6b02003f 	cmp	w1, w2
  4018b0:	54fff3a2 	b.cs	401724 <binop2+0x104>  // b.hs, b.nlast
  4018b4:	d503201f 	nop
  4018b8:	910ca35a 	add	x26, x26, #0x328
  4018bc:	2a1c03e1 	mov	w1, w28
  4018c0:	2a1603e3 	mov	w3, w22
  4018c4:	97ffff57 	bl	401620 <binop2>
  4018c8:	b9400b5c 	ldr	w28, [x26, #8]
  4018cc:	34000576 	cbz	w22, 401978 <binop2+0x358>
  4018d0:	aa0003f5 	mov	x21, x0
  4018d4:	51002385 	sub	w5, w28, #0x8
  4018d8:	2a1c03f8 	mov	w24, w28
  4018dc:	17ffffc4 	b	4017ec <binop2+0x1cc>
  4018e0:	d000019a 	adrp	x26, 433000 <__dso_handle>
  4018e4:	910ca343 	add	x3, x26, #0x328
  4018e8:	2a1603e1 	mov	w1, w22
  4018ec:	2a1c03e0 	mov	w0, w28
  4018f0:	f90033e3 	str	x3, [sp, #96]
  4018f4:	97fffe79 	bl	4012d8 <assignment>
  4018f8:	aa0003f3 	mov	x19, x0
  4018fc:	f94033e3 	ldr	x3, [sp, #96]
  401900:	b9400861 	ldr	w1, [x3, #8]
  401904:	71008c3f 	cmp	w1, #0x23
  401908:	54000421 	b.ne	40198c <binop2+0x36c>  // b.any
  40190c:	b0000182 	adrp	x2, 432000 <signal_names+0x100>
  401910:	f90033e3 	str	x3, [sp, #96]
  401914:	f9478040 	ldr	x0, [x2, #3840]
  401918:	d63f0000 	blr	x0
  40191c:	2a0003fc 	mov	w28, w0
  401920:	f94033e3 	ldr	x3, [sp, #96]
  401924:	b9000860 	str	w0, [x3, #8]
  401928:	17ffff73 	b	4016f4 <binop2+0xd4>
  40192c:	b0000182 	adrp	x2, 432000 <signal_names+0x100>
  401930:	f9444041 	ldr	x1, [x2, #2176]
  401934:	d63f0020 	blr	x1
  401938:	b9400a7c 	ldr	w28, [x19, #8]
  40193c:	9b177c00 	mul	x0, x0, x23
  401940:	51002385 	sub	w5, w28, #0x8
  401944:	71003cbf 	cmp	w5, #0xf
  401948:	54fff428 	b.hi	4017cc <binop2+0x1ac>  // b.pmore
  40194c:	51002303 	sub	w3, w24, #0x8
  401950:	f0000122 	adrp	x2, 428000 <__subtf3+0x758>
  401954:	913a4042 	add	x2, x2, #0xe90
  401958:	3865c841 	ldrb	w1, [x2, w5, sxtw]
  40195c:	3863c842 	ldrb	w2, [x2, w3, sxtw]
  401960:	6b02003f 	cmp	w1, w2
  401964:	54fff342 	b.cs	4017cc <binop2+0x1ac>  // b.hs, b.nlast
  401968:	2a1c03e1 	mov	w1, w28
  40196c:	52800003 	mov	w3, #0x0                   	// #0
  401970:	97ffff2c 	bl	401620 <binop2>
  401974:	b9400a7c 	ldr	w28, [x19, #8]
  401978:	51002385 	sub	w5, w28, #0x8
  40197c:	17ffff94 	b	4017cc <binop2+0x1ac>
  401980:	f0000120 	adrp	x0, 428000 <__subtf3+0x758>
  401984:	91394000 	add	x0, x0, #0xe50
  401988:	97fffcde 	bl	400d00 <yyerror>
  40198c:	f0000120 	adrp	x0, 428000 <__subtf3+0x758>
  401990:	91390000 	add	x0, x0, #0xe40
  401994:	97fffcdb 	bl	400d00 <yyerror>
  401998:	b0000182 	adrp	x2, 432000 <signal_names+0x100>
  40199c:	f944cc40 	ldr	x0, [x2, #2456]
  4019a0:	d63f0000 	blr	x0
  4019a4:	d503201f 	nop

00000000004019a8 <or>:
  4019a8:	a9bb7bfd 	stp	x29, x30, [sp, #-80]!
  4019ac:	2a0003e4 	mov	w4, w0
  4019b0:	910003fd 	mov	x29, sp
  4019b4:	a90363f7 	stp	x23, x24, [sp, #48]
  4019b8:	b0000197 	adrp	x23, 432000 <signal_names+0x100>
  4019bc:	d2800038 	mov	x24, #0x1                   	// #1
  4019c0:	a9046bf9 	stp	x25, x26, [sp, #64]
  4019c4:	f94732fa 	ldr	x26, [x23, #3680]
  4019c8:	a90153f3 	stp	x19, x20, [sp, #16]
  4019cc:	aa0103f4 	mov	x20, x1
  4019d0:	f94782f9 	ldr	x25, [x23, #3840]
  4019d4:	2a0203f3 	mov	w19, w2
  4019d8:	a9025bf5 	stp	x21, x22, [sp, #32]
  4019dc:	2a0303f6 	mov	w22, w3
  4019e0:	7100489f 	cmp	w4, #0x12
  4019e4:	54000ae0 	b.eq	401b40 <or+0x198>  // b.none
  4019e8:	5400068c 	b.gt	401ab8 <or+0x110>
  4019ec:	7100189f 	cmp	w4, #0x6
  4019f0:	54001300 	b.eq	401c50 <or+0x2a8>  // b.none
  4019f4:	71001c9f 	cmp	w4, #0x7
  4019f8:	54000521 	b.ne	401a9c <or+0xf4>  // b.any
  4019fc:	b0000195 	adrp	x21, 432000 <signal_names+0x100>
  401a00:	d0000197 	adrp	x23, 433000 <__dso_handle>
  401a04:	f94732b5 	ldr	x21, [x21, #3680]
  401a08:	f94002a0 	ldr	x0, [x21]
  401a0c:	b0000195 	adrp	x21, 432000 <signal_names+0x100>
  401a10:	f9000280 	str	x0, [x20]
  401a14:	f94782a0 	ldr	x0, [x21, #3840]
  401a18:	d63f0000 	blr	x0
  401a1c:	2a0003e2 	mov	w2, w0
  401a20:	aa1403e1 	mov	x1, x20
  401a24:	2a1303e0 	mov	w0, w19
  401a28:	2a1603e3 	mov	w3, w22
  401a2c:	97fffe79 	bl	401410 <primary>
  401a30:	910ca2e1 	add	x1, x23, #0x328
  401a34:	f100001f 	cmp	x0, #0x0
  401a38:	9a9f17fa 	cset	x26, eq  // eq = none
  401a3c:	b9400833 	ldr	w19, [x1, #8]
  401a40:	51002261 	sub	w1, w19, #0x8
  401a44:	9b1a7f18 	mul	x24, x24, x26
  401a48:	71003c3f 	cmp	w1, #0xf
  401a4c:	54000128 	b.hi	401a70 <or+0xc8>  // b.pmore
  401a50:	2a1303e1 	mov	w1, w19
  401a54:	aa1803e0 	mov	x0, x24
  401a58:	2a1603e3 	mov	w3, w22
  401a5c:	52800102 	mov	w2, #0x8                   	// #8
  401a60:	97fffef0 	bl	401620 <binop2>
  401a64:	aa0003f8 	mov	x24, x0
  401a68:	910ca2e1 	add	x1, x23, #0x328
  401a6c:	b9400833 	ldr	w19, [x1, #8]
  401a70:	71000e7f 	cmp	w19, #0x3
  401a74:	54000720 	b.eq	401b58 <or+0x1b0>  // b.none
  401a78:	71000a7f 	cmp	w19, #0x2
  401a7c:	540009a0 	b.eq	401bb0 <or+0x208>  // b.none
  401a80:	aa1803e0 	mov	x0, x24
  401a84:	a94153f3 	ldp	x19, x20, [sp, #16]
  401a88:	a9425bf5 	ldp	x21, x22, [sp, #32]
  401a8c:	a94363f7 	ldp	x23, x24, [sp, #48]
  401a90:	a9446bf9 	ldp	x25, x26, [sp, #64]
  401a94:	a8c57bfd 	ldp	x29, x30, [sp], #80
  401a98:	d65f03c0 	ret
  401a9c:	7100149f 	cmp	w4, #0x5
  401aa0:	54000f21 	b.ne	401c84 <or+0x2dc>  // b.any
  401aa4:	d0000197 	adrp	x23, 433000 <__dso_handle>
  401aa8:	910ca2e0 	add	x0, x23, #0x328
  401aac:	f940029a 	ldr	x26, [x20]
  401ab0:	b9000813 	str	w19, [x0, #8]
  401ab4:	17ffffe3 	b	401a40 <or+0x98>
  401ab8:	7100889f 	cmp	w4, #0x22
  401abc:	54000ac0 	b.eq	401c14 <or+0x26c>  // b.none
  401ac0:	7100909f 	cmp	w4, #0x24
  401ac4:	54000241 	b.ne	401b0c <or+0x164>  // b.any
  401ac8:	b0000195 	adrp	x21, 432000 <signal_names+0x100>
  401acc:	d0000197 	adrp	x23, 433000 <__dso_handle>
  401ad0:	f94732b5 	ldr	x21, [x21, #3680]
  401ad4:	f94002a0 	ldr	x0, [x21]
  401ad8:	b0000195 	adrp	x21, 432000 <signal_names+0x100>
  401adc:	f9000280 	str	x0, [x20]
  401ae0:	f94782a0 	ldr	x0, [x21, #3840]
  401ae4:	d63f0000 	blr	x0
  401ae8:	2a0003e2 	mov	w2, w0
  401aec:	aa1403e1 	mov	x1, x20
  401af0:	2a1303e0 	mov	w0, w19
  401af4:	2a1603e3 	mov	w3, w22
  401af8:	97fffe46 	bl	401410 <primary>
  401afc:	910ca2e1 	add	x1, x23, #0x328
  401b00:	aa2003fa 	mvn	x26, x0
  401b04:	b9400833 	ldr	w19, [x1, #8]
  401b08:	17ffffce 	b	401a40 <or+0x98>
  401b0c:	7100509f 	cmp	w4, #0x14
  401b10:	54000ba1 	b.ne	401c84 <or+0x2dc>  // b.any
  401b14:	f94732e0 	ldr	x0, [x23, #3680]
  401b18:	b0000195 	adrp	x21, 432000 <signal_names+0x100>
  401b1c:	cb1803f8 	neg	x24, x24
  401b20:	f9400000 	ldr	x0, [x0]
  401b24:	f9000280 	str	x0, [x20]
  401b28:	f94782a0 	ldr	x0, [x21, #3840]
  401b2c:	d63f0000 	blr	x0
  401b30:	2a1303e4 	mov	w4, w19
  401b34:	2a0003f3 	mov	w19, w0
  401b38:	7100489f 	cmp	w4, #0x12
  401b3c:	54fff561 	b.ne	4019e8 <or+0x40>  // b.any
  401b40:	f9400340 	ldr	x0, [x26]
  401b44:	f9000280 	str	x0, [x20]
  401b48:	d63f0320 	blr	x25
  401b4c:	2a1303e4 	mov	w4, w19
  401b50:	2a0003f3 	mov	w19, w0
  401b54:	17ffffa3 	b	4019e0 <or+0x38>
  401b58:	b0000195 	adrp	x21, 432000 <signal_names+0x100>
  401b5c:	910ca2f7 	add	x23, x23, #0x328
  401b60:	f94782b9 	ldr	x25, [x21, #3840]
  401b64:	d63f0320 	blr	x25
  401b68:	2a0003f3 	mov	w19, w0
  401b6c:	f94732b5 	ldr	x21, [x21, #3680]
  401b70:	f94002a0 	ldr	x0, [x21]
  401b74:	f9000280 	str	x0, [x20]
  401b78:	d63f0320 	blr	x25
  401b7c:	2a0003e2 	mov	w2, w0
  401b80:	f100031f 	cmp	x24, #0x0
  401b84:	2a1303e0 	mov	w0, w19
  401b88:	1a9f17e3 	cset	w3, eq  // eq = none
  401b8c:	aa1403e1 	mov	x1, x20
  401b90:	2a160063 	orr	w3, w3, w22
  401b94:	97fffcb5 	bl	400e68 <and>
  401b98:	b9400af3 	ldr	w19, [x23, #8]
  401b9c:	f100031f 	cmp	x24, #0x0
  401ba0:	fa401804 	ccmp	x0, #0x0, #0x4, ne  // ne = any
  401ba4:	9a9f07f8 	cset	x24, ne  // ne = any
  401ba8:	71000a7f 	cmp	w19, #0x2
  401bac:	54fff6a1 	b.ne	401a80 <or+0xd8>  // b.any
  401bb0:	b0000195 	adrp	x21, 432000 <signal_names+0x100>
  401bb4:	f94782b7 	ldr	x23, [x21, #3840]
  401bb8:	d63f02e0 	blr	x23
  401bbc:	2a0003f3 	mov	w19, w0
  401bc0:	f94732b5 	ldr	x21, [x21, #3680]
  401bc4:	f94002a0 	ldr	x0, [x21]
  401bc8:	f9000280 	str	x0, [x20]
  401bcc:	d63f02e0 	blr	x23
  401bd0:	2a0003e2 	mov	w2, w0
  401bd4:	f100031f 	cmp	x24, #0x0
  401bd8:	aa1403e1 	mov	x1, x20
  401bdc:	1a9f07e3 	cset	w3, ne  // ne = any
  401be0:	2a1303e0 	mov	w0, w19
  401be4:	2a160063 	orr	w3, w3, w22
  401be8:	97ffff70 	bl	4019a8 <or>
  401bec:	aa180018 	orr	x24, x0, x24
  401bf0:	f100031f 	cmp	x24, #0x0
  401bf4:	9a9f07f8 	cset	x24, ne  // ne = any
  401bf8:	aa1803e0 	mov	x0, x24
  401bfc:	a94153f3 	ldp	x19, x20, [sp, #16]
  401c00:	a9425bf5 	ldp	x21, x22, [sp, #32]
  401c04:	a94363f7 	ldp	x23, x24, [sp, #48]
  401c08:	a9446bf9 	ldp	x25, x26, [sp, #64]
  401c0c:	a8c57bfd 	ldp	x29, x30, [sp], #80
  401c10:	d65f03c0 	ret
  401c14:	d0000197 	adrp	x23, 433000 <__dso_handle>
  401c18:	910ca2f9 	add	x25, x23, #0x328
  401c1c:	2a1603e1 	mov	w1, w22
  401c20:	2a1303e0 	mov	w0, w19
  401c24:	97fffdad 	bl	4012d8 <assignment>
  401c28:	aa0003fa 	mov	x26, x0
  401c2c:	b9400b21 	ldr	w1, [x25, #8]
  401c30:	71008c3f 	cmp	w1, #0x23
  401c34:	540002e1 	b.ne	401c90 <or+0x2e8>  // b.any
  401c38:	b0000195 	adrp	x21, 432000 <signal_names+0x100>
  401c3c:	f94782a0 	ldr	x0, [x21, #3840]
  401c40:	d63f0000 	blr	x0
  401c44:	2a0003f3 	mov	w19, w0
  401c48:	b9000b20 	str	w0, [x25, #8]
  401c4c:	17ffff7d 	b	401a40 <or+0x98>
  401c50:	d0000197 	adrp	x23, 433000 <__dso_handle>
  401c54:	910ca2f9 	add	x25, x23, #0x328
  401c58:	f9400280 	ldr	x0, [x20]
  401c5c:	b9000b33 	str	w19, [x25, #8]
  401c60:	34000076 	cbz	w22, 401c6c <or+0x2c4>
  401c64:	aa0003fa 	mov	x26, x0
  401c68:	17ffff76 	b	401a40 <or+0x98>
  401c6c:	b0000195 	adrp	x21, 432000 <signal_names+0x100>
  401c70:	f94442a1 	ldr	x1, [x21, #2176]
  401c74:	d63f0020 	blr	x1
  401c78:	b9400b33 	ldr	w19, [x25, #8]
  401c7c:	aa0003fa 	mov	x26, x0
  401c80:	17ffff70 	b	401a40 <or+0x98>
  401c84:	f0000120 	adrp	x0, 428000 <__subtf3+0x758>
  401c88:	91394000 	add	x0, x0, #0xe50
  401c8c:	97fffc1d 	bl	400d00 <yyerror>
  401c90:	f0000120 	adrp	x0, 428000 <__subtf3+0x758>
  401c94:	91390000 	add	x0, x0, #0xe40
  401c98:	97fffc1a 	bl	400d00 <yyerror>
  401c9c:	d503201f 	nop

0000000000401ca0 <arith>:
  401ca0:	a9bb7bfd 	stp	x29, x30, [sp, #-80]!
  401ca4:	910003fd 	mov	x29, sp
  401ca8:	a90153f3 	stp	x19, x20, [sp, #16]
  401cac:	b0000193 	adrp	x19, 432000 <signal_names+0x100>
  401cb0:	f9478a62 	ldr	x2, [x19, #3856]
  401cb4:	a9025bf5 	stp	x21, x22, [sp, #32]
  401cb8:	d0000195 	adrp	x21, 433000 <__dso_handle>
  401cbc:	f943d261 	ldr	x1, [x19, #1952]
  401cc0:	f9001bf7 	str	x23, [sp, #48]
  401cc4:	f9478277 	ldr	x23, [x19, #3840]
  401cc8:	f90196a0 	str	x0, [x21, #808]
  401ccc:	f9000040 	str	x0, [x2]
  401cd0:	f9400020 	ldr	x0, [x1]
  401cd4:	f90027e0 	str	x0, [sp, #72]
  401cd8:	d2800000 	mov	x0, #0x0                   	// #0
  401cdc:	d63f02e0 	blr	x23
  401ce0:	2a0003f6 	mov	w22, w0
  401ce4:	f9473261 	ldr	x1, [x19, #3680]
  401ce8:	f9400020 	ldr	x0, [x1]
  401cec:	f90023e0 	str	x0, [sp, #64]
  401cf0:	d63f02e0 	blr	x23
  401cf4:	2a0003f4 	mov	w20, w0
  401cf8:	71001adf 	cmp	w22, #0x6
  401cfc:	54000381 	b.ne	401d6c <arith+0xcc>  // b.any
  401d00:	51006000 	sub	w0, w0, #0x18
  401d04:	7100241f 	cmp	w0, #0x9
  401d08:	7a418a84 	ccmp	w20, #0x1, #0x4, hi  // hi = pmore
  401d0c:	54000301 	b.ne	401d6c <arith+0xcc>  // b.any
  401d10:	d63f02e0 	blr	x23
  401d14:	52800001 	mov	w1, #0x0                   	// #0
  401d18:	97fffd70 	bl	4012d8 <assignment>
  401d1c:	7100069f 	cmp	w20, #0x1
  401d20:	aa0003f6 	mov	x22, x0
  401d24:	f94023f7 	ldr	x23, [sp, #64]
  401d28:	54000140 	b.eq	401d50 <arith+0xb0>  // b.none
  401d2c:	b0000183 	adrp	x3, 432000 <signal_names+0x100>
  401d30:	aa1703e0 	mov	x0, x23
  401d34:	f9444061 	ldr	x1, [x3, #2176]
  401d38:	d63f0020 	blr	x1
  401d3c:	aa0003e1 	mov	x1, x0
  401d40:	aa1603e2 	mov	x2, x22
  401d44:	51002e80 	sub	w0, w20, #0xb
  401d48:	97fffbf8 	bl	400d28 <do_binop>
  401d4c:	aa0003f6 	mov	x22, x0
  401d50:	b0000183 	adrp	x3, 432000 <signal_names+0x100>
  401d54:	aa1603e1 	mov	x1, x22
  401d58:	aa1703e0 	mov	x0, x23
  401d5c:	52800002 	mov	w2, #0x0                   	// #0
  401d60:	f9447463 	ldr	x3, [x3, #2280]
  401d64:	d63f0060 	blr	x3
  401d68:	14000006 	b	401d80 <arith+0xe0>
  401d6c:	2a1403e2 	mov	w2, w20
  401d70:	2a1603e0 	mov	w0, w22
  401d74:	910103e1 	add	x1, sp, #0x40
  401d78:	52800003 	mov	w3, #0x0                   	// #0
  401d7c:	97fffce1 	bl	401100 <cond>
  401d80:	910ca2b5 	add	x21, x21, #0x328
  401d84:	b9400aa1 	ldr	w1, [x21, #8]
  401d88:	350001e1 	cbnz	w1, 401dc4 <arith+0x124>
  401d8c:	f943d273 	ldr	x19, [x19, #1952]
  401d90:	b0000183 	adrp	x3, 432000 <signal_names+0x100>
  401d94:	f94027e1 	ldr	x1, [sp, #72]
  401d98:	f9400262 	ldr	x2, [x19]
  401d9c:	eb020021 	subs	x1, x1, x2
  401da0:	d2800002 	mov	x2, #0x0                   	// #0
  401da4:	540000c1 	b.ne	401dbc <arith+0x11c>  // b.any
  401da8:	a94153f3 	ldp	x19, x20, [sp, #16]
  401dac:	a9425bf5 	ldp	x21, x22, [sp, #32]
  401db0:	f9401bf7 	ldr	x23, [sp, #48]
  401db4:	a8c57bfd 	ldp	x29, x30, [sp], #80
  401db8:	d65f03c0 	ret
  401dbc:	f944cc60 	ldr	x0, [x3, #2456]
  401dc0:	d63f0000 	blr	x0
  401dc4:	f0000120 	adrp	x0, 428000 <__subtf3+0x758>
  401dc8:	9139e000 	add	x0, x0, #0xe78
  401dcc:	97fffbcd 	bl	400d00 <yyerror>

0000000000401dd0 <yylex>:
  401dd0:	a9bd7bfd 	stp	x29, x30, [sp, #-48]!
  401dd4:	f0000120 	adrp	x0, 428000 <__subtf3+0x758>
  401dd8:	913a8000 	add	x0, x0, #0xea0
  401ddc:	910003fd 	mov	x29, sp
  401de0:	a90153f3 	stp	x19, x20, [sp, #16]
  401de4:	b0000193 	adrp	x19, 432000 <signal_names+0x100>
  401de8:	f9478a61 	ldr	x1, [x19, #3856]
  401dec:	a9025bf5 	stp	x21, x22, [sp, #32]
  401df0:	f9400035 	ldr	x21, [x1]
  401df4:	394002a1 	ldrb	w1, [x21]
  401df8:	7101f83f 	cmp	w1, #0x7e
  401dfc:	540000c9 	b.ls	401e14 <yylex+0x44>  // b.plast
  401e00:	52800080 	mov	w0, #0x4                   	// #4
  401e04:	a94153f3 	ldp	x19, x20, [sp, #16]
  401e08:	a9425bf5 	ldp	x21, x22, [sp, #32]
  401e0c:	a8c37bfd 	ldp	x29, x30, [sp], #48
  401e10:	d65f03c0 	ret
  401e14:	38614801 	ldrb	w1, [x0, w1, uxtw]
  401e18:	10000062 	adr	x2, 401e24 <yylex+0x54>
  401e1c:	8b218841 	add	x1, x2, w1, sxtb #2
  401e20:	d61f0020 	br	x1
  401e24:	f9468676 	ldr	x22, [x19, #3336]
  401e28:	aa1503f4 	mov	x20, x21
  401e2c:	38401e80 	ldrb	w0, [x20, #1]!
  401e30:	71017c1f 	cmp	w0, #0x5f
  401e34:	54ffffc0 	b.eq	401e2c <yylex+0x5c>  // b.none
  401e38:	d63f02c0 	blr	x22
  401e3c:	35ffff80 	cbnz	w0, 401e2c <yylex+0x5c>
  401e40:	b0000183 	adrp	x3, 432000 <signal_names+0x100>
  401e44:	cb150296 	sub	x22, x20, x21
  401e48:	910006c0 	add	x0, x22, #0x1
  401e4c:	f945e461 	ldr	x1, [x3, #3016]
  401e50:	d63f0020 	blr	x1
  401e54:	f9473263 	ldr	x3, [x19, #3680]
  401e58:	aa1503e1 	mov	x1, x21
  401e5c:	aa1603e2 	mov	x2, x22
  401e60:	f9000060 	str	x0, [x3]
  401e64:	b0000183 	adrp	x3, 432000 <signal_names+0x100>
  401e68:	f9449463 	ldr	x3, [x3, #2344]
  401e6c:	d63f0060 	blr	x3
  401e70:	aa0003e1 	mov	x1, x0
  401e74:	528000c0 	mov	w0, #0x6                   	// #6
  401e78:	3900003f 	strb	wzr, [x1]
  401e7c:	f9478a73 	ldr	x19, [x19, #3856]
  401e80:	a9425bf5 	ldp	x21, x22, [sp, #32]
  401e84:	f9000274 	str	x20, [x19]
  401e88:	a94153f3 	ldp	x19, x20, [sp, #16]
  401e8c:	a8c37bfd 	ldp	x29, x30, [sp], #48
  401e90:	d65f03c0 	ret
  401e94:	b0000183 	adrp	x3, 432000 <signal_names+0x100>
  401e98:	aa1503e0 	mov	x0, x21
  401e9c:	f9478a61 	ldr	x1, [x19, #3856]
  401ea0:	52800002 	mov	w2, #0x0                   	// #0
  401ea4:	f943ec63 	ldr	x3, [x3, #2008]
  401ea8:	d63f0060 	blr	x3
  401eac:	aa0003e1 	mov	x1, x0
  401eb0:	f9473273 	ldr	x19, [x19, #3680]
  401eb4:	528000a0 	mov	w0, #0x5                   	// #5
  401eb8:	f9000261 	str	x1, [x19]
  401ebc:	17ffffd2 	b	401e04 <yylex+0x34>
  401ec0:	910006b5 	add	x21, x21, #0x1
  401ec4:	17ffffcc 	b	401df4 <yylex+0x24>
  401ec8:	394006a1 	ldrb	w1, [x21, #1]
  401ecc:	910006b4 	add	x20, x21, #0x1
  401ed0:	528000e0 	mov	w0, #0x7                   	// #7
  401ed4:	7100f43f 	cmp	w1, #0x3d
  401ed8:	54fffd21 	b.ne	401e7c <yylex+0xac>  // b.any
  401edc:	528002e0 	mov	w0, #0x17                  	// #23
  401ee0:	91000694 	add	x20, x20, #0x1
  401ee4:	17ffffe6 	b	401e7c <yylex+0xac>
  401ee8:	394006a0 	ldrb	w0, [x21, #1]
  401eec:	910006b4 	add	x20, x21, #0x1
  401ef0:	7100f01f 	cmp	w0, #0x3c
  401ef4:	540009e0 	b.eq	402030 <yylex+0x260>  // b.none
  401ef8:	7100f41f 	cmp	w0, #0x3d
  401efc:	540008e0 	b.eq	402018 <yylex+0x248>  // b.none
  401f00:	52800140 	mov	w0, #0xa                   	// #10
  401f04:	17ffffde 	b	401e7c <yylex+0xac>
  401f08:	394006a1 	ldrb	w1, [x21, #1]
  401f0c:	910006b4 	add	x20, x21, #0x1
  401f10:	52800060 	mov	w0, #0x3                   	// #3
  401f14:	7100983f 	cmp	w1, #0x26
  401f18:	54fffe40 	b.eq	401ee0 <yylex+0x110>  // b.none
  401f1c:	528001c0 	mov	w0, #0xe                   	// #14
  401f20:	7100f43f 	cmp	w1, #0x3d
  401f24:	54fffac1 	b.ne	401e7c <yylex+0xac>  // b.any
  401f28:	11002c00 	add	w0, w0, #0xb
  401f2c:	91000694 	add	x20, x20, #0x1
  401f30:	17ffffd3 	b	401e7c <yylex+0xac>
  401f34:	528001a0 	mov	w0, #0xd                   	// #13
  401f38:	394006a1 	ldrb	w1, [x21, #1]
  401f3c:	910006b4 	add	x20, x21, #0x1
  401f40:	17fffff8 	b	401f20 <yylex+0x150>
  401f44:	528002a0 	mov	w0, #0x15                  	// #21
  401f48:	17fffffc 	b	401f38 <yylex+0x168>
  401f4c:	aa1503f4 	mov	x20, x21
  401f50:	528004a0 	mov	w0, #0x25                  	// #37
  401f54:	91000694 	add	x20, x20, #0x1
  401f58:	17ffffc9 	b	401e7c <yylex+0xac>
  401f5c:	394006a0 	ldrb	w0, [x21, #1]
  401f60:	910006b4 	add	x20, x21, #0x1
  401f64:	7100f41f 	cmp	w0, #0x3d
  401f68:	540005e0 	b.eq	402024 <yylex+0x254>  // b.none
  401f6c:	7100f81f 	cmp	w0, #0x3e
  401f70:	540004e0 	b.eq	40200c <yylex+0x23c>  // b.none
  401f74:	52800160 	mov	w0, #0xb                   	// #11
  401f78:	17ffffc1 	b	401e7c <yylex+0xac>
  401f7c:	528002c0 	mov	w0, #0x16                  	// #22
  401f80:	17ffffee 	b	401f38 <yylex+0x168>
  401f84:	52800280 	mov	w0, #0x14                  	// #20
  401f88:	17ffffec 	b	401f38 <yylex+0x168>
  401f8c:	52800240 	mov	w0, #0x12                  	// #18
  401f90:	17ffffea 	b	401f38 <yylex+0x168>
  401f94:	aa1503f4 	mov	x20, x21
  401f98:	52800480 	mov	w0, #0x24                  	// #36
  401f9c:	91000694 	add	x20, x20, #0x1
  401fa0:	17ffffb7 	b	401e7c <yylex+0xac>
  401fa4:	394006a1 	ldrb	w1, [x21, #1]
  401fa8:	910006b4 	add	x20, x21, #0x1
  401fac:	52800040 	mov	w0, #0x2                   	// #2
  401fb0:	7101f03f 	cmp	w1, #0x7c
  401fb4:	54fff960 	b.eq	401ee0 <yylex+0x110>  // b.none
  401fb8:	52800260 	mov	w0, #0x13                  	// #19
  401fbc:	17ffffd9 	b	401f20 <yylex+0x150>
  401fc0:	aa1503f4 	mov	x20, x21
  401fc4:	528004c0 	mov	w0, #0x26                  	// #38
  401fc8:	91000694 	add	x20, x20, #0x1
  401fcc:	17ffffac 	b	401e7c <yylex+0xac>
  401fd0:	aa1503f4 	mov	x20, x21
  401fd4:	52800460 	mov	w0, #0x23                  	// #35
  401fd8:	91000694 	add	x20, x20, #0x1
  401fdc:	17ffffa8 	b	401e7c <yylex+0xac>
  401fe0:	52800020 	mov	w0, #0x1                   	// #1
  401fe4:	17ffffd5 	b	401f38 <yylex+0x168>
  401fe8:	aa1503f4 	mov	x20, x21
  401fec:	52800000 	mov	w0, #0x0                   	// #0
  401ff0:	17ffffa3 	b	401e7c <yylex+0xac>
  401ff4:	52800220 	mov	w0, #0x11                  	// #17
  401ff8:	17ffffd0 	b	401f38 <yylex+0x168>
  401ffc:	aa1503f4 	mov	x20, x21
  402000:	52800440 	mov	w0, #0x22                  	// #34
  402004:	91000694 	add	x20, x20, #0x1
  402008:	17ffff9d 	b	401e7c <yylex+0xac>
  40200c:	aa1403f5 	mov	x21, x20
  402010:	52800200 	mov	w0, #0x10                  	// #16
  402014:	17ffffc9 	b	401f38 <yylex+0x168>
  402018:	91000694 	add	x20, x20, #0x1
  40201c:	52800100 	mov	w0, #0x8                   	// #8
  402020:	17ffff97 	b	401e7c <yylex+0xac>
  402024:	91000694 	add	x20, x20, #0x1
  402028:	52800120 	mov	w0, #0x9                   	// #9
  40202c:	17ffff94 	b	401e7c <yylex+0xac>
  402030:	aa1403f5 	mov	x21, x20
  402034:	528001e0 	mov	w0, #0xf                   	// #15
  402038:	17ffffc0 	b	401f38 <yylex+0x168>
  40203c:	d503201f 	nop

0000000000402040 <getpwd>:
  402040:	d282060c 	mov	x12, #0x1030                	// #4144
  402044:	cb2c63ff 	sub	sp, sp, x12
  402048:	d2820001 	mov	x1, #0x1000                	// #4096
  40204c:	a9007bfd 	stp	x29, x30, [sp]
  402050:	910003fd 	mov	x29, sp
  402054:	a90153f3 	stp	x19, x20, [sp, #16]
  402058:	90000193 	adrp	x19, 432000 <signal_names+0x100>
  40205c:	9100a3f4 	add	x20, sp, #0x28
  402060:	f943d262 	ldr	x2, [x19, #1952]
  402064:	aa1403e0 	mov	x0, x20
  402068:	f9400043 	ldr	x3, [x2]
  40206c:	f90817e3 	str	x3, [sp, #4136]
  402070:	d2800003 	mov	x3, #0x0                   	// #0
  402074:	f9469e62 	ldr	x2, [x19, #3384]
  402078:	d63f0040 	blr	x2
  40207c:	b40001e0 	cbz	x0, 4020b8 <getpwd+0x78>
  402080:	f9453e61 	ldr	x1, [x19, #2680]
  402084:	aa1403e0 	mov	x0, x20
  402088:	d63f0020 	blr	x1
  40208c:	f943d273 	ldr	x19, [x19, #1952]
  402090:	f94817e1 	ldr	x1, [sp, #4136]
  402094:	f9400262 	ldr	x2, [x19]
  402098:	eb020021 	subs	x1, x1, x2
  40209c:	d2800002 	mov	x2, #0x0                   	// #0
  4020a0:	540002a1 	b.ne	4020f4 <getpwd+0xb4>  // b.any
  4020a4:	d282060c 	mov	x12, #0x1030                	// #4144
  4020a8:	a9407bfd 	ldp	x29, x30, [sp]
  4020ac:	a94153f3 	ldp	x19, x20, [sp, #16]
  4020b0:	8b2c63ff 	add	sp, sp, x12
  4020b4:	d65f03c0 	ret
  4020b8:	90000182 	adrp	x2, 432000 <signal_names+0x100>
  4020bc:	f9471c40 	ldr	x0, [x2, #3640]
  4020c0:	d63f0000 	blr	x0
  4020c4:	b9400000 	ldr	w0, [x0]
  4020c8:	90000182 	adrp	x2, 432000 <signal_names+0x100>
  4020cc:	f943ac41 	ldr	x1, [x2, #1880]
  4020d0:	d63f0020 	blr	x1
  4020d4:	aa0003e1 	mov	x1, x0
  4020d8:	90000182 	adrp	x2, 432000 <signal_names+0x100>
  4020dc:	d0000120 	adrp	x0, 428000 <__subtf3+0x758>
  4020e0:	913c8000 	add	x0, x0, #0xf20
  4020e4:	f9459442 	ldr	x2, [x2, #2856]
  4020e8:	d63f0040 	blr	x2
  4020ec:	f946ca60 	ldr	x0, [x19, #3472]
  4020f0:	17ffffe7 	b	40208c <getpwd+0x4c>
  4020f4:	90000182 	adrp	x2, 432000 <signal_names+0x100>
  4020f8:	f944cc40 	ldr	x0, [x2, #2456]
  4020fc:	d63f0000 	blr	x0

0000000000402100 <setpwd>:
  402100:	a9bc7bfd 	stp	x29, x30, [sp, #-64]!
  402104:	910003fd 	mov	x29, sp
  402108:	a90153f3 	stp	x19, x20, [sp, #16]
  40210c:	90000193 	adrp	x19, 432000 <signal_names+0x100>
  402110:	a9025bf5 	stp	x21, x22, [sp, #32]
  402114:	b0000196 	adrp	x22, 433000 <__dso_handle>
  402118:	aa0003f5 	mov	x21, x0
  40211c:	f9001bf7 	str	x23, [sp, #48]
  402120:	f94006d7 	ldr	x23, [x22, #8]
  402124:	350007c1 	cbnz	w1, 40221c <setpwd+0x11c>
  402128:	f945a261 	ldr	x1, [x19, #2880]
  40212c:	b9400020 	ldr	w0, [x1]
  402130:	11000400 	add	w0, w0, #0x1
  402134:	b9000020 	str	w0, [x1]
  402138:	910022c0 	add	x0, x22, #0x8
  40213c:	f946ca61 	ldr	x1, [x19, #3472]
  402140:	f9400400 	ldr	x0, [x0, #8]
  402144:	eb01001f 	cmp	x0, x1
  402148:	54000120 	b.eq	40216c <setpwd+0x6c>  // b.none
  40214c:	eb17001f 	cmp	x0, x23
  402150:	54000080 	b.eq	402160 <setpwd+0x60>  // b.none
  402154:	90000183 	adrp	x3, 432000 <signal_names+0x100>
  402158:	f947dc61 	ldr	x1, [x3, #4024]
  40215c:	d63f0020 	blr	x1
  402160:	910022c0 	add	x0, x22, #0x8
  402164:	f946ca61 	ldr	x1, [x19, #3472]
  402168:	f9000401 	str	x1, [x0, #8]
  40216c:	f10002bf 	cmp	x21, #0x0
  402170:	fa5512e4 	ccmp	x23, x21, #0x4, ne  // ne = any
  402174:	54000361 	b.ne	4021e0 <setpwd+0xe0>  // b.any
  402178:	97ffffb2 	bl	402040 <getpwd>
  40217c:	aa0003f4 	mov	x20, x0
  402180:	910022c1 	add	x1, x22, #0x8
  402184:	f9000420 	str	x0, [x1, #8]
  402188:	b4000375 	cbz	x21, 4021f4 <setpwd+0xf4>
  40218c:	aa1703f4 	mov	x20, x23
  402190:	f90006d4 	str	x20, [x22, #8]
  402194:	f945a261 	ldr	x1, [x19, #2880]
  402198:	b9400020 	ldr	w0, [x1]
  40219c:	51000400 	sub	w0, w0, #0x1
  4021a0:	b9000020 	str	w0, [x1]
  4021a4:	35000080 	cbnz	w0, 4021b4 <setpwd+0xb4>
  4021a8:	f9434660 	ldr	x0, [x19, #1672]
  4021ac:	b9400000 	ldr	w0, [x0]
  4021b0:	35000440 	cbnz	w0, 402238 <setpwd+0x138>
  4021b4:	aa1403e1 	mov	x1, x20
  4021b8:	90000183 	adrp	x3, 432000 <signal_names+0x100>
  4021bc:	a94153f3 	ldp	x19, x20, [sp, #16]
  4021c0:	d0000120 	adrp	x0, 428000 <__subtf3+0x758>
  4021c4:	a9425bf5 	ldp	x21, x22, [sp, #32]
  4021c8:	913d0000 	add	x0, x0, #0xf40
  4021cc:	f9401bf7 	ldr	x23, [sp, #48]
  4021d0:	52800022 	mov	w2, #0x1                   	// #1
  4021d4:	a8c47bfd 	ldp	x29, x30, [sp], #64
  4021d8:	f946e470 	ldr	x16, [x3, #3528]
  4021dc:	d61f0200 	br	x16
  4021e0:	90000183 	adrp	x3, 432000 <signal_names+0x100>
  4021e4:	aa1503e0 	mov	x0, x21
  4021e8:	f9453c61 	ldr	x1, [x3, #2680]
  4021ec:	d63f0020 	blr	x1
  4021f0:	aa0003f4 	mov	x20, x0
  4021f4:	eb17029f 	cmp	x20, x23
  4021f8:	54fffcc0 	b.eq	402190 <setpwd+0x90>  // b.none
  4021fc:	f946ca60 	ldr	x0, [x19, #3472]
  402200:	eb0002ff 	cmp	x23, x0
  402204:	54fffc60 	b.eq	402190 <setpwd+0x90>  // b.none
  402208:	90000183 	adrp	x3, 432000 <signal_names+0x100>
  40220c:	aa1703e0 	mov	x0, x23
  402210:	f947dc61 	ldr	x1, [x3, #4024]
  402214:	d63f0020 	blr	x1
  402218:	17ffffde 	b	402190 <setpwd+0x90>
  40221c:	f946e663 	ldr	x3, [x19, #3528]
  402220:	aa1703e1 	mov	x1, x23
  402224:	d0000120 	adrp	x0, 428000 <__subtf3+0x758>
  402228:	52800022 	mov	w2, #0x1                   	// #1
  40222c:	913ce000 	add	x0, x0, #0xf38
  402230:	d63f0060 	blr	x3
  402234:	17ffffbd 	b	402128 <setpwd+0x28>
  402238:	90000183 	adrp	x3, 432000 <signal_names+0x100>
  40223c:	f943d460 	ldr	x0, [x3, #1960]
  402240:	d63f0000 	blr	x0
  402244:	17ffffdc 	b	4021b4 <setpwd+0xb4>

0000000000402248 <cdcmd>:
  402248:	a9b07bfd 	stp	x29, x30, [sp, #-256]!
  40224c:	d0000120 	adrp	x0, 428000 <__subtf3+0x758>
  402250:	913d4000 	add	x0, x0, #0xf50
  402254:	910003fd 	mov	x29, sp
  402258:	a90153f3 	stp	x19, x20, [sp, #16]
  40225c:	90000194 	adrp	x20, 432000 <signal_names+0x100>
  402260:	52800013 	mov	w19, #0x0                   	// #0
  402264:	f90037e0 	str	x0, [sp, #104]
  402268:	f943d280 	ldr	x0, [x20, #1952]
  40226c:	a9025bf5 	stp	x21, x22, [sp, #32]
  402270:	52800995 	mov	w21, #0x4c                  	// #76
  402274:	f944ee96 	ldr	x22, [x20, #2520]
  402278:	f9400001 	ldr	x1, [x0]
  40227c:	f9007fe1 	str	x1, [sp, #248]
  402280:	d2800001 	mov	x1, #0x0                   	// #0
  402284:	a90363f7 	stp	x23, x24, [sp, #48]
  402288:	a90573fb 	stp	x27, x28, [sp, #80]
  40228c:	14000005 	b	4022a0 <cdcmd+0x58>
  402290:	6b0002bf 	cmp	w21, w0
  402294:	52000261 	eor	w1, w19, #0x1
  402298:	2a0003f5 	mov	w21, w0
  40229c:	1a931033 	csel	w19, w1, w19, ne  // ne = any
  4022a0:	f94037e0 	ldr	x0, [sp, #104]
  4022a4:	d63f02c0 	blr	x22
  4022a8:	90000182 	adrp	x2, 432000 <signal_names+0x100>
  4022ac:	35ffff20 	cbnz	w0, 402290 <cdcmd+0x48>
  4022b0:	f945b680 	ldr	x0, [x20, #2920]
  4022b4:	f9400000 	ldr	x0, [x0]
  4022b8:	f940001c 	ldr	x28, [x0]
  4022bc:	b4001fdc 	cbz	x28, 4026b4 <cdcmd+0x46c>
  4022c0:	39400380 	ldrb	w0, [x28]
  4022c4:	7100b41f 	cmp	w0, #0x2d
  4022c8:	54001ac0 	b.eq	402620 <cdcmd+0x3d8>  // b.none
  4022cc:	7100bc1f 	cmp	w0, #0x2f
  4022d0:	aa1c03f5 	mov	x21, x28
  4022d4:	54000580 	b.eq	402384 <cdcmd+0x13c>  // b.none
  4022d8:	7100b81f 	cmp	w0, #0x2e
  4022dc:	54000b00 	b.eq	40243c <cdcmd+0x1f4>  // b.none
  4022e0:	a9046bf9 	stp	x25, x26, [sp, #64]
  4022e4:	35000060 	cbnz	w0, 4022f0 <cdcmd+0xa8>
  4022e8:	d0000135 	adrp	x21, 428000 <__subtf3+0x758>
  4022ec:	913d22b5 	add	x21, x21, #0xf48
  4022f0:	90000182 	adrp	x2, 432000 <signal_names+0x100>
  4022f4:	d0000120 	adrp	x0, 428000 <__subtf3+0x758>
  4022f8:	913d6000 	add	x0, x0, #0xf58
  4022fc:	9101c3f7 	add	x23, sp, #0x70
  402300:	f9447841 	ldr	x1, [x2, #2288]
  402304:	9101e3fa 	add	x26, sp, #0x78
  402308:	d63f0020 	blr	x1
  40230c:	aa0003fb 	mov	x27, x0
  402310:	f9434e96 	ldr	x22, [x20, #1688]
  402314:	aa1503e1 	mov	x1, x21
  402318:	f945e699 	ldr	x25, [x20, #3016]
  40231c:	52800002 	mov	w2, #0x0                   	// #0
  402320:	f9470298 	ldr	x24, [x20, #3584]
  402324:	f9003be0 	str	x0, [sp, #112]
  402328:	aa1703e0 	mov	x0, x23
  40232c:	d63f02c0 	blr	x22
  402330:	37f80260 	tbnz	w0, #31, 40237c <cdcmd+0x134>
  402334:	d503201f 	nop
  402338:	3940037b 	ldrb	w27, [x27]
  40233c:	93407c00 	sxtw	x0, w0
  402340:	d63f0320 	blr	x25
  402344:	aa0003fc 	mov	x28, x0
  402348:	aa1a03e1 	mov	x1, x26
  40234c:	d63f0300 	blr	x24
  402350:	37f800a0 	tbnz	w0, #31, 402364 <cdcmd+0x11c>
  402354:	b9408be0 	ldr	w0, [sp, #136]
  402358:	12140c00 	and	w0, w0, #0xf000
  40235c:	7140101f 	cmp	w0, #0x4, lsl #12
  402360:	54000880 	b.eq	402470 <cdcmd+0x228>  // b.none
  402364:	aa1503e1 	mov	x1, x21
  402368:	aa1703e0 	mov	x0, x23
  40236c:	52800002 	mov	w2, #0x0                   	// #0
  402370:	f9403bfb 	ldr	x27, [sp, #112]
  402374:	d63f02c0 	blr	x22
  402378:	36fffe00 	tbz	w0, #31, 402338 <cdcmd+0xf0>
  40237c:	a9446bf9 	ldp	x25, x26, [sp, #64]
  402380:	aa1503fc 	mov	x28, x21
  402384:	f945a281 	ldr	x1, [x20, #2880]
  402388:	90000182 	adrp	x2, 432000 <signal_names+0x100>
  40238c:	b9400020 	ldr	w0, [x1]
  402390:	11000400 	add	w0, w0, #0x1
  402394:	b9000020 	str	w0, [x1]
  402398:	d2800017 	mov	x23, #0x0                   	// #0
  40239c:	36000833 	tbz	w19, #0, 4024a0 <cdcmd+0x258>
  4023a0:	90000182 	adrp	x2, 432000 <signal_names+0x100>
  4023a4:	aa1c03e0 	mov	x0, x28
  4023a8:	f9452c41 	ldr	x1, [x2, #2648]
  4023ac:	d63f0020 	blr	x1
  4023b0:	2a0003f6 	mov	w22, w0
  4023b4:	350000e0 	cbnz	w0, 4023d0 <cdcmd+0x188>
  4023b8:	aa1703e0 	mov	x0, x23
  4023bc:	52800021 	mov	w1, #0x1                   	// #1
  4023c0:	97ffff50 	bl	402100 <setpwd>
  4023c4:	90000182 	adrp	x2, 432000 <signal_names+0x100>
  4023c8:	f9438440 	ldr	x0, [x2, #1800]
  4023cc:	d63f0000 	blr	x0
  4023d0:	f945a281 	ldr	x1, [x20, #2880]
  4023d4:	90000182 	adrp	x2, 432000 <signal_names+0x100>
  4023d8:	b9400020 	ldr	w0, [x1]
  4023dc:	51000400 	sub	w0, w0, #0x1
  4023e0:	b9000020 	str	w0, [x1]
  4023e4:	34000200 	cbz	w0, 402424 <cdcmd+0x1dc>
  4023e8:	35001a36 	cbnz	w22, 40272c <cdcmd+0x4e4>
  4023ec:	370810d3 	tbnz	w19, #1, 402604 <cdcmd+0x3bc>
  4023f0:	f943d294 	ldr	x20, [x20, #1952]
  4023f4:	f9407fe0 	ldr	x0, [sp, #248]
  4023f8:	f9400281 	ldr	x1, [x20]
  4023fc:	eb010000 	subs	x0, x0, x1
  402400:	d2800001 	mov	x1, #0x0                   	// #0
  402404:	54001a21 	b.ne	402748 <cdcmd+0x500>  // b.any
  402408:	52800000 	mov	w0, #0x0                   	// #0
  40240c:	a94153f3 	ldp	x19, x20, [sp, #16]
  402410:	a9425bf5 	ldp	x21, x22, [sp, #32]
  402414:	a94363f7 	ldp	x23, x24, [sp, #48]
  402418:	a94573fb 	ldp	x27, x28, [sp, #80]
  40241c:	a8d07bfd 	ldp	x29, x30, [sp], #256
  402420:	d65f03c0 	ret
  402424:	f9434680 	ldr	x0, [x20, #1672]
  402428:	b9400000 	ldr	w0, [x0]
  40242c:	34fffde0 	cbz	w0, 4023e8 <cdcmd+0x1a0>
  402430:	f943d440 	ldr	x0, [x2, #1960]
  402434:	d63f0000 	blr	x0
  402438:	17ffffec 	b	4023e8 <cdcmd+0x1a0>
  40243c:	39400780 	ldrb	w0, [x28, #1]
  402440:	7100b81f 	cmp	w0, #0x2e
  402444:	54000081 	b.ne	402454 <cdcmd+0x20c>  // b.any
  402448:	39400b80 	ldrb	w0, [x28, #2]
  40244c:	7100b81f 	cmp	w0, #0x2e
  402450:	54001500 	b.eq	4026f0 <cdcmd+0x4a8>  // b.none
  402454:	7100bc1f 	cmp	w0, #0x2f
  402458:	aa1c03f5 	mov	x21, x28
  40245c:	54fff940 	b.eq	402384 <cdcmd+0x13c>  // b.none
  402460:	34fff920 	cbz	w0, 402384 <cdcmd+0x13c>
  402464:	aa1c03f5 	mov	x21, x28
  402468:	a9046bf9 	stp	x25, x26, [sp, #64]
  40246c:	17ffffa1 	b	4022f0 <cdcmd+0xa8>
  402470:	f945a281 	ldr	x1, [x20, #2880]
  402474:	7100eb7f 	cmp	w27, #0x3a
  402478:	321f0260 	orr	w0, w19, #0x2
  40247c:	7a401b64 	ccmp	w27, #0x0, #0x4, ne  // ne = any
  402480:	1a931013 	csel	w19, w0, w19, ne  // ne = any
  402484:	90000182 	adrp	x2, 432000 <signal_names+0x100>
  402488:	b9400020 	ldr	w0, [x1]
  40248c:	a9446bf9 	ldp	x25, x26, [sp, #64]
  402490:	11000400 	add	w0, w0, #0x1
  402494:	b9000020 	str	w0, [x1]
  402498:	d2800017 	mov	x23, #0x0                   	// #0
  40249c:	3707f833 	tbnz	w19, #0, 4023a0 <cdcmd+0x158>
  4024a0:	f944c841 	ldr	x1, [x2, #2448]
  4024a4:	aa1c03e0 	mov	x0, x28
  4024a8:	d63f0020 	blr	x1
  4024ac:	aa0003f8 	mov	x24, x0
  4024b0:	f9479e81 	ldr	x1, [x20, #3896]
  4024b4:	39400382 	ldrb	w2, [x28]
  4024b8:	7100bc5f 	cmp	w2, #0x2f
  4024bc:	f9400036 	ldr	x22, [x1]
  4024c0:	54001140 	b.eq	4026e8 <cdcmd+0x4a0>  // b.none
  4024c4:	b0000180 	adrp	x0, 433000 <__dso_handle>
  4024c8:	f946ca81 	ldr	x1, [x20, #3472]
  4024cc:	f9400400 	ldr	x0, [x0, #8]
  4024d0:	eb01001f 	cmp	x0, x1
  4024d4:	54fff660 	b.eq	4023a0 <cdcmd+0x158>  // b.none
  4024d8:	90000182 	adrp	x2, 432000 <signal_names+0x100>
  4024dc:	a9046bf9 	stp	x25, x26, [sp, #64]
  4024e0:	aa1603e1 	mov	x1, x22
  4024e4:	f946e842 	ldr	x2, [x2, #3536]
  4024e8:	d63f0040 	blr	x2
  4024ec:	aa0003f6 	mov	x22, x0
  4024f0:	90000182 	adrp	x2, 432000 <signal_names+0x100>
  4024f4:	aa1c03e0 	mov	x0, x28
  4024f8:	f9477041 	ldr	x1, [x2, #3808]
  4024fc:	d63f0020 	blr	x1
  402500:	91000800 	add	x0, x0, #0x2
  402504:	90000182 	adrp	x2, 432000 <signal_names+0x100>
  402508:	aa1603e1 	mov	x1, x22
  40250c:	f9438842 	ldr	x2, [x2, #1808]
  402510:	d63f0040 	blr	x2
  402514:	aa0003e1 	mov	x1, x0
  402518:	f9479e83 	ldr	x3, [x20, #3896]
  40251c:	39400384 	ldrb	w4, [x28]
  402520:	f9400062 	ldr	x2, [x3]
  402524:	7100bc9f 	cmp	w4, #0x2f
  402528:	9100045a 	add	x26, x2, #0x1
  40252c:	54000960 	b.eq	402658 <cdcmd+0x410>  // b.none
  402530:	385ff000 	ldurb	w0, [x0, #-1]
  402534:	aa0103fb 	mov	x27, x1
  402538:	7100bc1f 	cmp	w0, #0x2f
  40253c:	54000080 	b.eq	40254c <cdcmd+0x304>  // b.none
  402540:	9100043b 	add	x27, x1, #0x1
  402544:	528005e0 	mov	w0, #0x2f                  	// #47
  402548:	39000020 	strb	w0, [x1]
  40254c:	eb1b035f 	cmp	x26, x27
  402550:	54000bc2 	b.cs	4026c8 <cdcmd+0x480>  // b.hs, b.nlast
  402554:	39400440 	ldrb	w0, [x2, #1]
  402558:	7100bc1f 	cmp	w0, #0x2f
  40255c:	54000de0 	b.eq	402718 <cdcmd+0x4d0>  // b.none
  402560:	90000182 	adrp	x2, 432000 <signal_names+0x100>
  402564:	d0000136 	adrp	x22, 428000 <__subtf3+0x758>
  402568:	aa1803e0 	mov	x0, x24
  40256c:	913d82c1 	add	x1, x22, #0xf60
  402570:	f945cc42 	ldr	x2, [x2, #2968]
  402574:	d63f0040 	blr	x2
  402578:	b4000360 	cbz	x0, 4025e4 <cdcmd+0x39c>
  40257c:	f946ea99 	ldr	x25, [x20, #3536]
  402580:	913d82d6 	add	x22, x22, #0xf60
  402584:	f945ce97 	ldr	x23, [x20, #2968]
  402588:	528005f8 	mov	w24, #0x2f                  	// #47
  40258c:	14000009 	b	4025b0 <cdcmd+0x368>
  402590:	39400401 	ldrb	w1, [x0, #1]
  402594:	7100b83f 	cmp	w1, #0x2e
  402598:	540007a0 	b.eq	40268c <cdcmd+0x444>  // b.none
  40259c:	35000101 	cbnz	w1, 4025bc <cdcmd+0x374>
  4025a0:	aa1603e1 	mov	x1, x22
  4025a4:	d2800000 	mov	x0, #0x0                   	// #0
  4025a8:	d63f02e0 	blr	x23
  4025ac:	b4000180 	cbz	x0, 4025dc <cdcmd+0x394>
  4025b0:	39400001 	ldrb	w1, [x0]
  4025b4:	7100b83f 	cmp	w1, #0x2e
  4025b8:	54fffec0 	b.eq	402590 <cdcmd+0x348>  // b.none
  4025bc:	aa1b03e1 	mov	x1, x27
  4025c0:	d63f0320 	blr	x25
  4025c4:	aa0003fb 	mov	x27, x0
  4025c8:	aa1603e1 	mov	x1, x22
  4025cc:	d2800000 	mov	x0, #0x0                   	// #0
  4025d0:	38001778 	strb	w24, [x27], #1
  4025d4:	d63f02e0 	blr	x23
  4025d8:	b5fffec0 	cbnz	x0, 4025b0 <cdcmd+0x368>
  4025dc:	eb1a037f 	cmp	x27, x26
  4025e0:	54000049 	b.ls	4025e8 <cdcmd+0x3a0>  // b.plast
  4025e4:	d100077b 	sub	x27, x27, #0x1
  4025e8:	f9479e80 	ldr	x0, [x20, #3896]
  4025ec:	3900037f 	strb	wzr, [x27]
  4025f0:	a9446bf9 	ldp	x25, x26, [sp, #64]
  4025f4:	f9400017 	ldr	x23, [x0]
  4025f8:	f10002ff 	cmp	x23, #0x0
  4025fc:	9a97039c 	csel	x28, x28, x23, eq  // eq = none
  402600:	17ffff68 	b	4023a0 <cdcmd+0x158>
  402604:	b0000181 	adrp	x1, 433000 <__dso_handle>
  402608:	90000182 	adrp	x2, 432000 <signal_names+0x100>
  40260c:	f944f680 	ldr	x0, [x20, #2536]
  402610:	f9400421 	ldr	x1, [x1, #8]
  402614:	f943b042 	ldr	x2, [x2, #1888]
  402618:	d63f0040 	blr	x2
  40261c:	17ffff75 	b	4023f0 <cdcmd+0x1a8>
  402620:	39400780 	ldrb	w0, [x28, #1]
  402624:	35fff200 	cbnz	w0, 402464 <cdcmd+0x21c>
  402628:	90000182 	adrp	x2, 432000 <signal_names+0x100>
  40262c:	d0000120 	adrp	x0, 428000 <__subtf3+0x758>
  402630:	321f0273 	orr	w19, w19, #0x2
  402634:	913ce000 	add	x0, x0, #0xf38
  402638:	f9447841 	ldr	x1, [x2, #2288]
  40263c:	d63f0020 	blr	x1
  402640:	aa0003fc 	mov	x28, x0
  402644:	b500071c 	cbnz	x28, 402724 <cdcmd+0x4dc>
  402648:	f946ca80 	ldr	x0, [x20, #3472]
  40264c:	aa0003fc 	mov	x28, x0
  402650:	39400000 	ldrb	w0, [x0]
  402654:	17ffff1e 	b	4022cc <cdcmd+0x84>
  402658:	aa0003fb 	mov	x27, x0
  40265c:	91000700 	add	x0, x24, #0x1
  402660:	38001764 	strb	w4, [x27], #1
  402664:	39400783 	ldrb	w3, [x28, #1]
  402668:	7100bc7f 	cmp	w3, #0x2f
  40266c:	54000460 	b.eq	4026f8 <cdcmd+0x4b0>  // b.none
  402670:	90000182 	adrp	x2, 432000 <signal_names+0x100>
  402674:	d0000136 	adrp	x22, 428000 <__subtf3+0x758>
  402678:	913d82c1 	add	x1, x22, #0xf60
  40267c:	f945cc42 	ldr	x2, [x2, #2968]
  402680:	d63f0040 	blr	x2
  402684:	b5fff7c0 	cbnz	x0, 40257c <cdcmd+0x334>
  402688:	17ffffd5 	b	4025dc <cdcmd+0x394>
  40268c:	39400801 	ldrb	w1, [x0, #2]
  402690:	35fff961 	cbnz	w1, 4025bc <cdcmd+0x374>
  402694:	14000005 	b	4026a8 <cdcmd+0x460>
  402698:	385fe360 	ldurb	w0, [x27, #-2]
  40269c:	d100077b 	sub	x27, x27, #0x1
  4026a0:	7100bc1f 	cmp	w0, #0x2f
  4026a4:	54fff7e0 	b.eq	4025a0 <cdcmd+0x358>  // b.none
  4026a8:	eb1a037f 	cmp	x27, x26
  4026ac:	54ffff68 	b.hi	402698 <cdcmd+0x450>  // b.pmore
  4026b0:	17ffffbc 	b	4025a0 <cdcmd+0x358>
  4026b4:	f9438280 	ldr	x0, [x20, #1792]
  4026b8:	f9447841 	ldr	x1, [x2, #2288]
  4026bc:	d63f0020 	blr	x1
  4026c0:	aa0003fc 	mov	x28, x0
  4026c4:	17ffffe0 	b	402644 <cdcmd+0x3fc>
  4026c8:	90000182 	adrp	x2, 432000 <signal_names+0x100>
  4026cc:	d0000136 	adrp	x22, 428000 <__subtf3+0x758>
  4026d0:	aa1803e0 	mov	x0, x24
  4026d4:	913d82c1 	add	x1, x22, #0xf60
  4026d8:	f945cc42 	ldr	x2, [x2, #2968]
  4026dc:	d63f0040 	blr	x2
  4026e0:	b5fff4e0 	cbnz	x0, 40257c <cdcmd+0x334>
  4026e4:	17ffffc1 	b	4025e8 <cdcmd+0x3a0>
  4026e8:	a9046bf9 	stp	x25, x26, [sp, #64]
  4026ec:	17ffff81 	b	4024f0 <cdcmd+0x2a8>
  4026f0:	a9046bf9 	stp	x25, x26, [sp, #64]
  4026f4:	17fffeff 	b	4022f0 <cdcmd+0xa8>
  4026f8:	39400b84 	ldrb	w4, [x28, #2]
  4026fc:	7100bc9f 	cmp	w4, #0x2f
  402700:	54fffb80 	b.eq	402670 <cdcmd+0x428>  // b.none
  402704:	91000b00 	add	x0, x24, #0x2
  402708:	9100085a 	add	x26, x2, #0x2
  40270c:	9100083b 	add	x27, x1, #0x2
  402710:	39000423 	strb	w3, [x1, #1]
  402714:	17ffffd7 	b	402670 <cdcmd+0x428>
  402718:	9100085a 	add	x26, x2, #0x2
  40271c:	aa1803e0 	mov	x0, x24
  402720:	17ffffd4 	b	402670 <cdcmd+0x428>
  402724:	39400380 	ldrb	w0, [x28]
  402728:	17fffee9 	b	4022cc <cdcmd+0x84>
  40272c:	90000182 	adrp	x2, 432000 <signal_names+0x100>
  402730:	a9046bf9 	stp	x25, x26, [sp, #64]
  402734:	d0000120 	adrp	x0, 428000 <__subtf3+0x758>
  402738:	f9461442 	ldr	x2, [x2, #3112]
  40273c:	aa1503e1 	mov	x1, x21
  402740:	913da000 	add	x0, x0, #0xf68
  402744:	d63f0040 	blr	x2
  402748:	90000182 	adrp	x2, 432000 <signal_names+0x100>
  40274c:	a9046bf9 	stp	x25, x26, [sp, #64]
  402750:	f944cc40 	ldr	x0, [x2, #2456]
  402754:	d63f0000 	blr	x0

0000000000402758 <pwdcmd>:
  402758:	a9bb7bfd 	stp	x29, x30, [sp, #-80]!
  40275c:	910003fd 	mov	x29, sp
  402760:	a9025bf5 	stp	x21, x22, [sp, #32]
  402764:	90000196 	adrp	x22, 432000 <signal_names+0x100>
  402768:	d0000135 	adrp	x21, 428000 <__subtf3+0x758>
  40276c:	a90363f7 	stp	x23, x24, [sp, #48]
  402770:	b0000197 	adrp	x23, 433000 <__dso_handle>
  402774:	913d42b5 	add	x21, x21, #0xf50
  402778:	f94006f8 	ldr	x24, [x23, #8]
  40277c:	a90153f3 	stp	x19, x20, [sp, #16]
  402780:	52800994 	mov	w20, #0x4c                  	// #76
  402784:	52800013 	mov	w19, #0x0                   	// #0
  402788:	f90023f9 	str	x25, [sp, #64]
  40278c:	f944eed9 	ldr	x25, [x22, #2520]
  402790:	14000004 	b	4027a0 <pwdcmd+0x48>
  402794:	6b00029f 	cmp	w20, w0
  402798:	2a0003f4 	mov	w20, w0
  40279c:	1a931033 	csel	w19, w1, w19, ne  // ne = any
  4027a0:	aa1503e0 	mov	x0, x21
  4027a4:	d63f0320 	blr	x25
  4027a8:	52000261 	eor	w1, w19, #0x1
  4027ac:	35ffff40 	cbnz	w0, 402794 <pwdcmd+0x3c>
  4027b0:	340000f3 	cbz	w19, 4027cc <pwdcmd+0x74>
  4027b4:	910022f7 	add	x23, x23, #0x8
  4027b8:	f946cac0 	ldr	x0, [x22, #3472]
  4027bc:	f94006e1 	ldr	x1, [x23, #8]
  4027c0:	eb00003f 	cmp	x1, x0
  4027c4:	540001c0 	b.eq	4027fc <pwdcmd+0xa4>  // b.none
  4027c8:	aa0103f8 	mov	x24, x1
  4027cc:	90000182 	adrp	x2, 432000 <signal_names+0x100>
  4027d0:	aa1803e1 	mov	x1, x24
  4027d4:	f944f6c0 	ldr	x0, [x22, #2536]
  4027d8:	f943b042 	ldr	x2, [x2, #1888]
  4027dc:	d63f0040 	blr	x2
  4027e0:	52800000 	mov	w0, #0x0                   	// #0
  4027e4:	a94153f3 	ldp	x19, x20, [sp, #16]
  4027e8:	a9425bf5 	ldp	x21, x22, [sp, #32]
  4027ec:	a94363f7 	ldp	x23, x24, [sp, #48]
  4027f0:	f94023f9 	ldr	x25, [sp, #64]
  4027f4:	a8c57bfd 	ldp	x29, x30, [sp], #80
  4027f8:	d65f03c0 	ret
  4027fc:	aa1803e0 	mov	x0, x24
  402800:	52800001 	mov	w1, #0x0                   	// #0
  402804:	97fffe3f 	bl	402100 <setpwd>
  402808:	f94006e1 	ldr	x1, [x23, #8]
  40280c:	aa0103f8 	mov	x24, x1
  402810:	17ffffef 	b	4027cc <pwdcmd+0x74>
  402814:	d503201f 	nop

0000000000402818 <exvwarning2>:
  402818:	a9bb7bfd 	stp	x29, x30, [sp, #-80]!
  40281c:	90000185 	adrp	x5, 432000 <signal_names+0x100>
  402820:	d0000128 	adrp	x8, 428000 <__subtf3+0x758>
  402824:	910003fd 	mov	x29, sp
  402828:	f9461ca2 	ldr	x2, [x5, #3128]
  40282c:	a90153f3 	stp	x19, x20, [sp, #16]
  402830:	aa0103f3 	mov	x19, x1
  402834:	f9459ca4 	ldr	x4, [x5, #2872]
  402838:	913de108 	add	x8, x8, #0xf78
  40283c:	f94428a3 	ldr	x3, [x5, #2128]
  402840:	d0000126 	adrp	x6, 428000 <__subtf3+0x758>
  402844:	f943e0a1 	ldr	x1, [x5, #1984]
  402848:	913e60c6 	add	x6, x6, #0xf98
  40284c:	f9400042 	ldr	x2, [x2]
  402850:	f9400084 	ldr	x4, [x4]
  402854:	f100005f 	cmp	x2, #0x0
  402858:	b9400063 	ldr	w3, [x3]
  40285c:	9a820102 	csel	x2, x8, x2, eq  // eq = none
  402860:	f94624a5 	ldr	x5, [x5, #3144]
  402864:	f100009f 	cmp	x4, #0x0
  402868:	f9400034 	ldr	x20, [x1]
  40286c:	f90013f5 	str	x21, [sp, #32]
  402870:	d0000121 	adrp	x1, 428000 <__subtf3+0x758>
  402874:	913e0021 	add	x1, x1, #0xf80
  402878:	9a860021 	csel	x1, x1, x6, eq  // eq = none
  40287c:	aa0003f5 	mov	x21, x0
  402880:	aa1403e0 	mov	x0, x20
  402884:	d63f00a0 	blr	x5
  402888:	a9401e66 	ldp	x6, x7, [x19]
  40288c:	aa1503e1 	mov	x1, x21
  402890:	a9411664 	ldp	x4, x5, [x19, #16]
  402894:	a9031fe6 	stp	x6, x7, [sp, #48]
  402898:	90000187 	adrp	x7, 432000 <signal_names+0x100>
  40289c:	a90417e4 	stp	x4, x5, [sp, #64]
  4028a0:	aa1403e0 	mov	x0, x20
  4028a4:	9100c3e2 	add	x2, sp, #0x30
  4028a8:	f94720e3 	ldr	x3, [x7, #3648]
  4028ac:	d63f0060 	blr	x3
  4028b0:	90000187 	adrp	x7, 432000 <signal_names+0x100>
  4028b4:	aa1403e1 	mov	x1, x20
  4028b8:	a94153f3 	ldp	x19, x20, [sp, #16]
  4028bc:	52800140 	mov	w0, #0xa                   	// #10
  4028c0:	f9456cf0 	ldr	x16, [x7, #2776]
  4028c4:	f94013f5 	ldr	x21, [sp, #32]
  4028c8:	a8c57bfd 	ldp	x29, x30, [sp], #80
  4028cc:	d61f0200 	br	x16

00000000004028d0 <exraise>:
  4028d0:	a9bf7bfd 	stp	x29, x30, [sp, #-16]!
  4028d4:	90000182 	adrp	x2, 432000 <signal_names+0x100>
  4028d8:	2a0003e3 	mov	w3, w0
  4028dc:	910003fd 	mov	x29, sp
  4028e0:	f943c440 	ldr	x0, [x2, #1928]
  4028e4:	b9400000 	ldr	w0, [x0]
  4028e8:	340000c0 	cbz	w0, 402900 <exraise+0x30>
  4028ec:	f9479042 	ldr	x2, [x2, #3872]
  4028f0:	b9400040 	ldr	w0, [x2]
  4028f4:	90000182 	adrp	x2, 432000 <signal_names+0x100>
  4028f8:	f9475c41 	ldr	x1, [x2, #3768]
  4028fc:	d63f0020 	blr	x1
  402900:	f945a041 	ldr	x1, [x2, #2880]
  402904:	b9400020 	ldr	w0, [x1]
  402908:	11000400 	add	w0, w0, #0x1
  40290c:	b9000020 	str	w0, [x1]
  402910:	f945d440 	ldr	x0, [x2, #2984]
  402914:	52800021 	mov	w1, #0x1                   	// #1
  402918:	f946b042 	ldr	x2, [x2, #3424]
  40291c:	f9400000 	ldr	x0, [x0]
  402920:	b9000043 	str	w3, [x2]
  402924:	90000182 	adrp	x2, 432000 <signal_names+0x100>
  402928:	f9433842 	ldr	x2, [x2, #1648]
  40292c:	d63f0040 	blr	x2

0000000000402930 <onint>:
  402930:	a9b57bfd 	stp	x29, x30, [sp, #-176]!
  402934:	910003fd 	mov	x29, sp
  402938:	a90153f3 	stp	x19, x20, [sp, #16]
  40293c:	90000193 	adrp	x19, 432000 <signal_names+0x100>
  402940:	9100a3f4 	add	x20, sp, #0x28
  402944:	f943d262 	ldr	x2, [x19, #1952]
  402948:	aa1403e0 	mov	x0, x20
  40294c:	f9434661 	ldr	x1, [x19, #1672]
  402950:	f9400043 	ldr	x3, [x2]
  402954:	f90057e3 	str	x3, [sp, #168]
  402958:	d2800003 	mov	x3, #0x0                   	// #0
  40295c:	b900003f 	str	wzr, [x1]
  402960:	f943a261 	ldr	x1, [x19, #1856]
  402964:	d63f0020 	blr	x1
  402968:	f947ea63 	ldr	x3, [x19, #4048]
  40296c:	aa1403e1 	mov	x1, x20
  402970:	d2800002 	mov	x2, #0x0                   	// #0
  402974:	52800040 	mov	w0, #0x2                   	// #2
  402978:	d63f0060 	blr	x3
  40297c:	f9460260 	ldr	x0, [x19, #3072]
  402980:	b9400000 	ldr	w0, [x0]
  402984:	35000080 	cbnz	w0, 402994 <onint+0x64>
  402988:	f944b660 	ldr	x0, [x19, #2408]
  40298c:	39400c00 	ldrb	w0, [x0, #3]
  402990:	35000140 	cbnz	w0, 4029b8 <onint+0x88>
  402994:	90000183 	adrp	x3, 432000 <signal_names+0x100>
  402998:	d2800001 	mov	x1, #0x0                   	// #0
  40299c:	52800040 	mov	w0, #0x2                   	// #2
  4029a0:	f9458862 	ldr	x2, [x3, #2832]
  4029a4:	d63f0040 	blr	x2
  4029a8:	90000183 	adrp	x3, 432000 <signal_names+0x100>
  4029ac:	52800040 	mov	w0, #0x2                   	// #2
  4029b0:	f947d861 	ldr	x1, [x3, #4016]
  4029b4:	d63f0020 	blr	x1
  4029b8:	f9479273 	ldr	x19, [x19, #3872]
  4029bc:	52801041 	mov	w1, #0x82                  	// #130
  4029c0:	52800000 	mov	w0, #0x0                   	// #0
  4029c4:	b9000261 	str	w1, [x19]
  4029c8:	97ffffc2 	bl	4028d0 <exraise>
  4029cc:	d503201f 	nop

00000000004029d0 <sh_error>:
  4029d0:	a9ac7bfd 	stp	x29, x30, [sp, #-320]!
  4029d4:	90000188 	adrp	x8, 432000 <signal_names+0x100>
  4029d8:	128006ea 	mov	w10, #0xffffffc8            	// #-56
  4029dc:	910003fd 	mov	x29, sp
  4029e0:	f947910c 	ldr	x12, [x8, #3872]
  4029e4:	f90087e1 	str	x1, [sp, #264]
  4029e8:	f943d108 	ldr	x8, [x8, #1952]
  4029ec:	910403eb 	add	x11, sp, #0x100
  4029f0:	910503ed 	add	x13, sp, #0x140
  4029f4:	12800fe9 	mov	w9, #0xffffff80            	// #-128
  4029f8:	a903b7ed 	stp	x13, x13, [sp, #56]
  4029fc:	5280004d 	mov	w13, #0x2                   	// #2
  402a00:	910043e1 	add	x1, sp, #0x10
  402a04:	f90027eb 	str	x11, [sp, #72]
  402a08:	f940010b 	ldr	x11, [x8]
  402a0c:	f9003feb 	str	x11, [sp, #120]
  402a10:	d280000b 	mov	x11, #0x0                   	// #0
  402a14:	290a27ea 	stp	w10, w9, [sp, #80]
  402a18:	a943afea 	ldp	x10, x11, [sp, #56]
  402a1c:	a9012fea 	stp	x10, x11, [sp, #16]
  402a20:	a944a7e8 	ldp	x8, x9, [sp, #72]
  402a24:	a90227e8 	stp	x8, x9, [sp, #32]
  402a28:	a905afea 	stp	x10, x11, [sp, #88]
  402a2c:	a906a7e8 	stp	x8, x9, [sp, #104]
  402a30:	3d8023e0 	str	q0, [sp, #128]
  402a34:	3d8027e1 	str	q1, [sp, #144]
  402a38:	3d802be2 	str	q2, [sp, #160]
  402a3c:	3d802fe3 	str	q3, [sp, #176]
  402a40:	3d8033e4 	str	q4, [sp, #192]
  402a44:	3d8037e5 	str	q5, [sp, #208]
  402a48:	3d803be6 	str	q6, [sp, #224]
  402a4c:	3d803fe7 	str	q7, [sp, #240]
  402a50:	a9110fe2 	stp	x2, x3, [sp, #272]
  402a54:	a91217e4 	stp	x4, x5, [sp, #288]
  402a58:	a9131fe6 	stp	x6, x7, [sp, #304]
  402a5c:	b900018d 	str	w13, [x12]
  402a60:	97ffff6e 	bl	402818 <exvwarning2>
  402a64:	90000188 	adrp	x8, 432000 <signal_names+0x100>
  402a68:	f9449d00 	ldr	x0, [x8, #2360]
  402a6c:	d63f0000 	blr	x0
  402a70:	52800020 	mov	w0, #0x1                   	// #1
  402a74:	97ffff97 	bl	4028d0 <exraise>

0000000000402a78 <exerror>:
  402a78:	a9ac7bfd 	stp	x29, x30, [sp, #-320]!
  402a7c:	128005ea 	mov	w10, #0xffffffd0            	// #-48
  402a80:	12800fe9 	mov	w9, #0xffffff80            	// #-128
  402a84:	910003fd 	mov	x29, sp
  402a88:	910443eb 	add	x11, sp, #0x110
  402a8c:	910503ec 	add	x12, sp, #0x140
  402a90:	90000188 	adrp	x8, 432000 <signal_names+0x100>
  402a94:	a904b3ec 	stp	x12, x12, [sp, #72]
  402a98:	f9002feb 	str	x11, [sp, #88]
  402a9c:	290c27ea 	stp	w10, w9, [sp, #96]
  402aa0:	f943d108 	ldr	x8, [x8, #1952]
  402aa4:	f9000bf3 	str	x19, [sp, #16]
  402aa8:	a944b7ec 	ldp	x12, x13, [sp, #72]
  402aac:	f9400109 	ldr	x9, [x8]
  402ab0:	f90047e9 	str	x9, [sp, #136]
  402ab4:	d2800009 	mov	x9, #0x0                   	// #0
  402ab8:	a945afea 	ldp	x10, x11, [sp, #88]
  402abc:	2a0003f3 	mov	w19, w0
  402ac0:	aa0103e0 	mov	x0, x1
  402ac4:	910083e1 	add	x1, sp, #0x20
  402ac8:	a90237ec 	stp	x12, x13, [sp, #32]
  402acc:	a9032fea 	stp	x10, x11, [sp, #48]
  402ad0:	a906b7ec 	stp	x12, x13, [sp, #104]
  402ad4:	a907afea 	stp	x10, x11, [sp, #120]
  402ad8:	3d8027e0 	str	q0, [sp, #144]
  402adc:	3d802be1 	str	q1, [sp, #160]
  402ae0:	3d802fe2 	str	q2, [sp, #176]
  402ae4:	3d8033e3 	str	q3, [sp, #192]
  402ae8:	3d8037e4 	str	q4, [sp, #208]
  402aec:	3d803be5 	str	q5, [sp, #224]
  402af0:	3d803fe6 	str	q6, [sp, #240]
  402af4:	3d8043e7 	str	q7, [sp, #256]
  402af8:	a9110fe2 	stp	x2, x3, [sp, #272]
  402afc:	a91217e4 	stp	x4, x5, [sp, #288]
  402b00:	a9131fe6 	stp	x6, x7, [sp, #304]
  402b04:	97ffff45 	bl	402818 <exvwarning2>
  402b08:	90000188 	adrp	x8, 432000 <signal_names+0x100>
  402b0c:	f9449d00 	ldr	x0, [x8, #2360]
  402b10:	d63f0000 	blr	x0
  402b14:	2a1303e0 	mov	w0, w19
  402b18:	97ffff6e 	bl	4028d0 <exraise>
  402b1c:	d503201f 	nop

0000000000402b20 <sh_warnx>:
  402b20:	a9aa7bfd 	stp	x29, x30, [sp, #-352]!
  402b24:	90000188 	adrp	x8, 432000 <signal_names+0x100>
  402b28:	128006ea 	mov	w10, #0xffffffc8            	// #-56
  402b2c:	910003fd 	mov	x29, sp
  402b30:	910583ec 	add	x12, sp, #0x160
  402b34:	f90013f5 	str	x21, [sp, #32]
  402b38:	f943d115 	ldr	x21, [x8, #1952]
  402b3c:	a905b3ec 	stp	x12, x12, [sp, #88]
  402b40:	910483eb 	add	x11, sp, #0x120
  402b44:	12800fe9 	mov	w9, #0xffffff80            	// #-128
  402b48:	a90153f3 	stp	x19, x20, [sp, #16]
  402b4c:	d0000130 	adrp	x16, 428000 <__subtf3+0x758>
  402b50:	f9461d13 	ldr	x19, [x8, #3128]
  402b54:	f90037eb 	str	x11, [sp, #104]
  402b58:	290e27ea 	stp	w10, w9, [sp, #112]
  402b5c:	f94002a9 	ldr	x9, [x21]
  402b60:	f9004fe9 	str	x9, [sp, #152]
  402b64:	d2800009 	mov	x9, #0x0                   	// #0
  402b68:	a945b7ec 	ldp	x12, x13, [sp, #88]
  402b6c:	a907b7ec 	stp	x12, x13, [sp, #120]
  402b70:	913de210 	add	x16, x16, #0xf78
  402b74:	f9459d11 	ldr	x17, [x8, #2872]
  402b78:	3d802be0 	str	q0, [sp, #160]
  402b7c:	d000012e 	adrp	x14, 428000 <__subtf3+0x758>
  402b80:	3d802fe1 	str	q1, [sp, #176]
  402b84:	913e61ce 	add	x14, x14, #0xf98
  402b88:	d000012f 	adrp	x15, 428000 <__subtf3+0x758>
  402b8c:	3d8033e2 	str	q2, [sp, #192]
  402b90:	913e01ef 	add	x15, x15, #0xf80
  402b94:	aa0003f4 	mov	x20, x0
  402b98:	3d8037e3 	str	q3, [sp, #208]
  402b9c:	3d803be4 	str	q4, [sp, #224]
  402ba0:	3d803fe5 	str	q5, [sp, #240]
  402ba4:	3d8043e6 	str	q6, [sp, #256]
  402ba8:	3d8047e7 	str	q7, [sp, #272]
  402bac:	a9128be1 	stp	x1, x2, [sp, #296]
  402bb0:	a91393e3 	stp	x3, x4, [sp, #312]
  402bb4:	f943e112 	ldr	x18, [x8, #1984]
  402bb8:	a946afea 	ldp	x10, x11, [sp, #104]
  402bbc:	a9149be5 	stp	x5, x6, [sp, #328]
  402bc0:	f900afe7 	str	x7, [sp, #344]
  402bc4:	f9442909 	ldr	x9, [x8, #2128]
  402bc8:	a908afea 	stp	x10, x11, [sp, #136]
  402bcc:	f9400262 	ldr	x2, [x19]
  402bd0:	f9400224 	ldr	x4, [x17]
  402bd4:	f100005f 	cmp	x2, #0x0
  402bd8:	f9462505 	ldr	x5, [x8, #3144]
  402bdc:	9a820202 	csel	x2, x16, x2, eq  // eq = none
  402be0:	b9400123 	ldr	w3, [x9]
  402be4:	f100009f 	cmp	x4, #0x0
  402be8:	f9400253 	ldr	x19, [x18]
  402bec:	9a8e01e1 	csel	x1, x15, x14, eq  // eq = none
  402bf0:	aa1303e0 	mov	x0, x19
  402bf4:	d63f00a0 	blr	x5
  402bf8:	90000189 	adrp	x9, 432000 <signal_names+0x100>
  402bfc:	9100c3e2 	add	x2, sp, #0x30
  402c00:	a9479fe6 	ldp	x6, x7, [sp, #120]
  402c04:	a9031fe6 	stp	x6, x7, [sp, #48]
  402c08:	aa1403e1 	mov	x1, x20
  402c0c:	a94897e4 	ldp	x4, x5, [sp, #136]
  402c10:	a90417e4 	stp	x4, x5, [sp, #64]
  402c14:	aa1303e0 	mov	x0, x19
  402c18:	f9472123 	ldr	x3, [x9, #3648]
  402c1c:	d63f0060 	blr	x3
  402c20:	90000189 	adrp	x9, 432000 <signal_names+0x100>
  402c24:	aa1303e1 	mov	x1, x19
  402c28:	52800140 	mov	w0, #0xa                   	// #10
  402c2c:	f9456d22 	ldr	x2, [x9, #2776]
  402c30:	d63f0040 	blr	x2
  402c34:	f9404fe0 	ldr	x0, [sp, #152]
  402c38:	f94002a1 	ldr	x1, [x21]
  402c3c:	eb010000 	subs	x0, x0, x1
  402c40:	d2800001 	mov	x1, #0x0                   	// #0
  402c44:	540000a1 	b.ne	402c58 <sh_warnx+0x138>  // b.any
  402c48:	a94153f3 	ldp	x19, x20, [sp, #16]
  402c4c:	f94013f5 	ldr	x21, [sp, #32]
  402c50:	a8d67bfd 	ldp	x29, x30, [sp], #352
  402c54:	d65f03c0 	ret
  402c58:	90000189 	adrp	x9, 432000 <signal_names+0x100>
  402c5c:	f944cd20 	ldr	x0, [x9, #2456]
  402c60:	d63f0000 	blr	x0
  402c64:	d503201f 	nop

0000000000402c68 <errmsg>:
  402c68:	7100081f 	cmp	w0, #0x2
  402c6c:	7a541804 	ccmp	w0, #0x14, #0x4, ne  // ne = any
  402c70:	54000181 	b.ne	402ca0 <errmsg+0x38>  // b.any
  402c74:	37000101 	tbnz	w1, #0, 402c94 <errmsg+0x2c>
  402c78:	f27f003f 	tst	x1, #0x2
  402c7c:	d0000120 	adrp	x0, 428000 <__subtf3+0x758>
  402c80:	d0000121 	adrp	x1, 428000 <__subtf3+0x758>
  402c84:	913ee000 	add	x0, x0, #0xfb8
  402c88:	913f4021 	add	x1, x1, #0xfd0
  402c8c:	9a811000 	csel	x0, x0, x1, ne  // ne = any
  402c90:	d65f03c0 	ret
  402c94:	d0000120 	adrp	x0, 428000 <__subtf3+0x758>
  402c98:	913ea000 	add	x0, x0, #0xfa8
  402c9c:	d65f03c0 	ret
  402ca0:	90000181 	adrp	x1, 432000 <signal_names+0x100>
  402ca4:	f943ac30 	ldr	x16, [x1, #1880]
  402ca8:	d61f0200 	br	x16
  402cac:	d503201f 	nop

0000000000402cb0 <bltincmd>:
  402cb0:	90000180 	adrp	x0, 432000 <signal_names+0x100>
  402cb4:	f944a000 	ldr	x0, [x0, #2368]
  402cb8:	b9400000 	ldr	w0, [x0]
  402cbc:	d65f03c0 	ret

0000000000402cc0 <expredir>:
  402cc0:	a9ba7bfd 	stp	x29, x30, [sp, #-96]!
  402cc4:	910003fd 	mov	x29, sp
  402cc8:	a9025bf5 	stp	x21, x22, [sp, #32]
  402ccc:	90000195 	adrp	x21, 432000 <signal_names+0x100>
  402cd0:	a90153f3 	stp	x19, x20, [sp, #16]
  402cd4:	aa0003f3 	mov	x19, x0
  402cd8:	f943d2a0 	ldr	x0, [x21, #1952]
  402cdc:	f9400001 	ldr	x1, [x0]
  402ce0:	f9002fe1 	str	x1, [sp, #88]
  402ce4:	d2800001 	mov	x1, #0x0                   	// #0
  402ce8:	b40004f3 	cbz	x19, 402d84 <expredir+0xc4>
  402cec:	f94532b6 	ldr	x22, [x21, #2656]
  402cf0:	910123f4 	add	x20, sp, #0x48
  402cf4:	f9001bf7 	str	x23, [sp, #48]
  402cf8:	f9459ab7 	ldr	x23, [x21, #2864]
  402cfc:	1400000e 	b	402d34 <expredir+0x74>
  402d00:	71003c3f 	cmp	w1, #0xf
  402d04:	5400014d 	b.le	402d2c <expredir+0x6c>
  402d08:	90000183 	adrp	x3, 432000 <signal_names+0x100>
  402d0c:	aa1403e1 	mov	x1, x20
  402d10:	f9400e60 	ldr	x0, [x19, #24]
  402d14:	52800142 	mov	w2, #0xa                   	// #10
  402d18:	f9459863 	ldr	x3, [x3, #2864]
  402d1c:	d63f0060 	blr	x3
  402d20:	f94027e0 	ldr	x0, [sp, #72]
  402d24:	f9400400 	ldr	x0, [x0, #8]
  402d28:	f9001260 	str	x0, [x19, #32]
  402d2c:	f9400673 	ldr	x19, [x19, #8]
  402d30:	b4000293 	cbz	x19, 402d80 <expredir+0xc0>
  402d34:	b9400261 	ldr	w1, [x19]
  402d38:	f9002bf4 	str	x20, [sp, #80]
  402d3c:	7100503f 	cmp	w1, #0x14
  402d40:	54fffe0d 	b.le	402d00 <expredir+0x40>
  402d44:	51005421 	sub	w1, w1, #0x15
  402d48:	7100043f 	cmp	w1, #0x1
  402d4c:	54ffff08 	b.hi	402d2c <expredir+0x6c>  // b.pmore
  402d50:	f9400e60 	ldr	x0, [x19, #24]
  402d54:	b4fffec0 	cbz	x0, 402d2c <expredir+0x6c>
  402d58:	aa1403e1 	mov	x1, x20
  402d5c:	52800142 	mov	w2, #0xa                   	// #10
  402d60:	d63f02e0 	blr	x23
  402d64:	f94027e1 	ldr	x1, [sp, #72]
  402d68:	aa1303e0 	mov	x0, x19
  402d6c:	52800022 	mov	w2, #0x1                   	// #1
  402d70:	f9400421 	ldr	x1, [x1, #8]
  402d74:	d63f02c0 	blr	x22
  402d78:	f9400673 	ldr	x19, [x19, #8]
  402d7c:	b5fffdd3 	cbnz	x19, 402d34 <expredir+0x74>
  402d80:	f9401bf7 	ldr	x23, [sp, #48]
  402d84:	90000183 	adrp	x3, 432000 <signal_names+0x100>
  402d88:	f943d2b5 	ldr	x21, [x21, #1952]
  402d8c:	f9402fe0 	ldr	x0, [sp, #88]
  402d90:	f94002a1 	ldr	x1, [x21]
  402d94:	eb010000 	subs	x0, x0, x1
  402d98:	d2800001 	mov	x1, #0x0                   	// #0
  402d9c:	540000a1 	b.ne	402db0 <expredir+0xf0>  // b.any
  402da0:	a94153f3 	ldp	x19, x20, [sp, #16]
  402da4:	a9425bf5 	ldp	x21, x22, [sp, #32]
  402da8:	a8c67bfd 	ldp	x29, x30, [sp], #96
  402dac:	d65f03c0 	ret
  402db0:	f944cc60 	ldr	x0, [x3, #2456]
  402db4:	f9001bf7 	str	x23, [sp, #48]
  402db8:	d63f0000 	blr	x0
  402dbc:	d503201f 	nop

0000000000402dc0 <evaltree>:
  402dc0:	a9ba7bfd 	stp	x29, x30, [sp, #-96]!
  402dc4:	910003fd 	mov	x29, sp
  402dc8:	a90153f3 	stp	x19, x20, [sp, #16]
  402dcc:	90000194 	adrp	x20, 432000 <signal_names+0x100>
  402dd0:	f943d282 	ldr	x2, [x20, #1952]
  402dd4:	a9025bf5 	stp	x21, x22, [sp, #32]
  402dd8:	2a0103f6 	mov	w22, w1
  402ddc:	f9469a81 	ldr	x1, [x20, #3376]
  402de0:	aa0003f5 	mov	x21, x0
  402de4:	f9400040 	ldr	x0, [x2]
  402de8:	f9002fe0 	str	x0, [sp, #88]
  402dec:	d2800000 	mov	x0, #0x0                   	// #0
  402df0:	f9001bf7 	str	x23, [sp, #48]
  402df4:	910103f7 	add	x23, sp, #0x40
  402df8:	aa1703e0 	mov	x0, x23
  402dfc:	d63f0020 	blr	x1
  402e00:	b4000ed5 	cbz	x21, 402fd8 <evaltree+0x218>
  402e04:	f9464693 	ldr	x19, [x20, #3208]
  402e08:	d63f0260 	blr	x19
  402e0c:	b94002a2 	ldr	w2, [x21]
  402e10:	7100205f 	cmp	w2, #0x8
  402e14:	54000d40 	b.eq	402fbc <evaltree+0x1fc>  // b.none
  402e18:	5400030c 	b.gt	402e78 <evaltree+0xb8>
  402e1c:	7100085f 	cmp	w2, #0x2
  402e20:	54000f60 	b.eq	40300c <evaltree+0x24c>  // b.none
  402e24:	540008cd 	b.le	402f3c <evaltree+0x17c>
  402e28:	7100105f 	cmp	w2, #0x4
  402e2c:	54000bcd 	b.le	402fa4 <evaltree+0x1e4>
  402e30:	51001453 	sub	w19, w2, #0x5
  402e34:	f94006a0 	ldr	x0, [x21, #8]
  402e38:	53017e61 	lsr	w1, w19, #1
  402e3c:	51000421 	sub	w1, w1, #0x1
  402e40:	2a160021 	orr	w1, w1, w22
  402e44:	121f0021 	and	w1, w1, #0x2
  402e48:	97ffffde 	bl	402dc0 <evaltree>
  402e4c:	7100001f 	cmp	w0, #0x0
  402e50:	1a9f17e0 	cset	w0, eq  // eq = none
  402e54:	6b13001f 	cmp	w0, w19
  402e58:	54000c00 	b.eq	402fd8 <evaltree+0x218>  // b.none
  402e5c:	f9455e80 	ldr	x0, [x20, #2744]
  402e60:	b9400000 	ldr	w0, [x0]
  402e64:	35000ba0 	cbnz	w0, 402fd8 <evaltree+0x218>
  402e68:	90000000 	adrp	x0, 402000 <yylex+0x230>
  402e6c:	91370002 	add	x2, x0, #0xdc0
  402e70:	f9400ab5 	ldr	x21, [x21, #16]
  402e74:	14000029 	b	402f18 <evaltree+0x158>
  402e78:	7100305f 	cmp	w2, #0xc
  402e7c:	54000b60 	b.eq	402fe8 <evaltree+0x228>  // b.none
  402e80:	5400040d 	b.le	402f00 <evaltree+0x140>
  402e84:	7100385f 	cmp	w2, #0xe
  402e88:	54000b61 	b.ne	402ff4 <evaltree+0x234>  // b.any
  402e8c:	90000183 	adrp	x3, 432000 <signal_names+0x100>
  402e90:	aa1503e0 	mov	x0, x21
  402e94:	52800013 	mov	w19, #0x0                   	// #0
  402e98:	f947b061 	ldr	x1, [x3, #3936]
  402e9c:	d63f0020 	blr	x1
  402ea0:	90000183 	adrp	x3, 432000 <signal_names+0x100>
  402ea4:	f9479282 	ldr	x2, [x20, #3872]
  402ea8:	f9464460 	ldr	x0, [x3, #3208]
  402eac:	b9000053 	str	w19, [x2]
  402eb0:	d63f0000 	blr	x0
  402eb4:	d503201f 	nop
  402eb8:	370006f6 	tbnz	w22, #0, 402f94 <evaltree+0x1d4>
  402ebc:	90000183 	adrp	x3, 432000 <signal_names+0x100>
  402ec0:	aa1703e0 	mov	x0, x23
  402ec4:	f944a461 	ldr	x1, [x3, #2376]
  402ec8:	d63f0020 	blr	x1
  402ecc:	f9479280 	ldr	x0, [x20, #3872]
  402ed0:	f943d294 	ldr	x20, [x20, #1952]
  402ed4:	b9400000 	ldr	w0, [x0]
  402ed8:	f9402fe1 	ldr	x1, [sp, #88]
  402edc:	f9400282 	ldr	x2, [x20]
  402ee0:	eb020021 	subs	x1, x1, x2
  402ee4:	d2800002 	mov	x2, #0x0                   	// #0
  402ee8:	54000f41 	b.ne	4030d0 <evaltree+0x310>  // b.any
  402eec:	a94153f3 	ldp	x19, x20, [sp, #16]
  402ef0:	a9425bf5 	ldp	x21, x22, [sp, #32]
  402ef4:	f9401bf7 	ldr	x23, [sp, #48]
  402ef8:	a8c67bfd 	ldp	x29, x30, [sp], #96
  402efc:	d65f03c0 	ret
  402f00:	7100285f 	cmp	w2, #0xa
  402f04:	54000c2d 	b.le	403088 <evaltree+0x2c8>
  402f08:	71002c5f 	cmp	w2, #0xb
  402f0c:	b0000000 	adrp	x0, 403000 <evaltree+0x240>
  402f10:	91080002 	add	x2, x0, #0x200
  402f14:	54000701 	b.ne	402ff4 <evaltree+0x234>  // b.any
  402f18:	aa1503e0 	mov	x0, x21
  402f1c:	2a1603e1 	mov	w1, w22
  402f20:	d63f0040 	blr	x2
  402f24:	f9479282 	ldr	x2, [x20, #3872]
  402f28:	90000183 	adrp	x3, 432000 <signal_names+0x100>
  402f2c:	b9000040 	str	w0, [x2]
  402f30:	f9464460 	ldr	x0, [x3, #3208]
  402f34:	d63f0000 	blr	x0
  402f38:	17ffffe0 	b	402eb8 <evaltree+0xf8>
  402f3c:	340003a2 	cbz	w2, 402fb0 <evaltree+0x1f0>
  402f40:	7100045f 	cmp	w2, #0x1
  402f44:	54000581 	b.ne	402ff4 <evaltree+0x234>  // b.any
  402f48:	b0000002 	adrp	x2, 403000 <evaltree+0x240>
  402f4c:	91166042 	add	x2, x2, #0x598
  402f50:	2a3603e1 	mvn	w1, w22
  402f54:	aa1503e0 	mov	x0, x21
  402f58:	121f0035 	and	w21, w1, #0x2
  402f5c:	2a1603e1 	mov	w1, w22
  402f60:	d63f0040 	blr	x2
  402f64:	2a0003f3 	mov	w19, w0
  402f68:	90000183 	adrp	x3, 432000 <signal_names+0x100>
  402f6c:	f9479282 	ldr	x2, [x20, #3872]
  402f70:	f9464460 	ldr	x0, [x3, #3208]
  402f74:	b9000053 	str	w19, [x2]
  402f78:	d63f0000 	blr	x0
  402f7c:	f944b680 	ldr	x0, [x20, #2408]
  402f80:	39400000 	ldrb	w0, [x0]
  402f84:	34fff9a0 	cbz	w0, 402eb8 <evaltree+0xf8>
  402f88:	710002bf 	cmp	w21, #0x0
  402f8c:	7a401a64 	ccmp	w19, #0x0, #0x4, ne  // ne = any
  402f90:	54fff940 	b.eq	402eb8 <evaltree+0xf8>  // b.none
  402f94:	90000183 	adrp	x3, 432000 <signal_names+0x100>
  402f98:	52800060 	mov	w0, #0x3                   	// #3
  402f9c:	f9454c61 	ldr	x1, [x3, #2712]
  402fa0:	d63f0020 	blr	x1
  402fa4:	b0000002 	adrp	x2, 403000 <evaltree+0x240>
  402fa8:	91220042 	add	x2, x2, #0x880
  402fac:	17ffffe9 	b	402f50 <evaltree+0x190>
  402fb0:	d0000002 	adrp	x2, 404000 <evalbltin+0x108>
  402fb4:	91052042 	add	x2, x2, #0x148
  402fb8:	17ffffe6 	b	402f50 <evaltree+0x190>
  402fbc:	f94006a0 	ldr	x0, [x21, #8]
  402fc0:	52800041 	mov	w1, #0x2                   	// #2
  402fc4:	97ffff7f 	bl	402dc0 <evaltree>
  402fc8:	f9455e81 	ldr	x1, [x20, #2744]
  402fcc:	b9400033 	ldr	w19, [x1]
  402fd0:	340006b3 	cbz	w19, 4030a4 <evaltree+0x2e4>
  402fd4:	d503201f 	nop
  402fd8:	90000183 	adrp	x3, 432000 <signal_names+0x100>
  402fdc:	f9464460 	ldr	x0, [x3, #3208]
  402fe0:	d63f0000 	blr	x0
  402fe4:	17ffffb5 	b	402eb8 <evaltree+0xf8>
  402fe8:	b0000000 	adrp	x0, 403000 <evaltree+0x240>
  402fec:	91038002 	add	x2, x0, #0xe0
  402ff0:	17ffffca 	b	402f18 <evaltree+0x158>
  402ff4:	f94006a0 	ldr	x0, [x21, #8]
  402ff8:	52800041 	mov	w1, #0x2                   	// #2
  402ffc:	97ffff71 	bl	402dc0 <evaltree>
  403000:	7100001f 	cmp	w0, #0x0
  403004:	1a9f17f3 	cset	w19, eq  // eq = none
  403008:	17ffffa6 	b	402ea0 <evaltree+0xe0>
  40300c:	90000180 	adrp	x0, 433000 <__dso_handle>
  403010:	b94006a2 	ldr	w2, [x21, #4]
  403014:	f947e284 	ldr	x4, [x20, #4032]
  403018:	b9433401 	ldr	w1, [x0, #820]
  40301c:	f9442a83 	ldr	x3, [x20, #2128]
  403020:	7100003f 	cmp	w1, #0x0
  403024:	51000421 	sub	w1, w1, #0x1
  403028:	4b010041 	sub	w1, w2, w1
  40302c:	f9400aa0 	ldr	x0, [x21, #16]
  403030:	1a821021 	csel	w1, w1, w2, ne  // ne = any
  403034:	b9000062 	str	w2, [x3]
  403038:	b9000081 	str	w1, [x4]
  40303c:	97ffff21 	bl	402cc0 <expredir>
  403040:	f0000163 	adrp	x3, 432000 <signal_names+0x100>
  403044:	f9400aa0 	ldr	x0, [x21, #16]
  403048:	f9437461 	ldr	x1, [x3, #1768]
  40304c:	d63f0020 	blr	x1
  403050:	f0000163 	adrp	x3, 432000 <signal_names+0x100>
  403054:	52800021 	mov	w1, #0x1                   	// #1
  403058:	f9400aa0 	ldr	x0, [x21, #16]
  40305c:	f946e062 	ldr	x2, [x3, #3520]
  403060:	d63f0040 	blr	x2
  403064:	2a0003f3 	mov	w19, w0
  403068:	340002a0 	cbz	w0, 4030bc <evaltree+0x2fc>
  40306c:	f9400aa0 	ldr	x0, [x21, #16]
  403070:	b4fff180 	cbz	x0, 402ea0 <evaltree+0xe0>
  403074:	f0000163 	adrp	x3, 432000 <signal_names+0x100>
  403078:	52800000 	mov	w0, #0x0                   	// #0
  40307c:	f946d061 	ldr	x1, [x3, #3488]
  403080:	d63f0020 	blr	x1
  403084:	17ffff87 	b	402ea0 <evaltree+0xe0>
  403088:	2a1603e1 	mov	w1, w22
  40308c:	aa1503e0 	mov	x0, x21
  403090:	9400026e 	bl	403a48 <evalloop>
  403094:	f9479281 	ldr	x1, [x20, #3872]
  403098:	b9000020 	str	w0, [x1]
  40309c:	d63f0260 	blr	x19
  4030a0:	17ffff86 	b	402eb8 <evaltree+0xf8>
  4030a4:	34ffee20 	cbz	w0, 402e68 <evaltree+0xa8>
  4030a8:	f9400eb5 	ldr	x21, [x21, #24]
  4030ac:	f0ffffe2 	adrp	x2, 402000 <yylex+0x230>
  4030b0:	91370042 	add	x2, x2, #0xdc0
  4030b4:	b5fff335 	cbnz	x21, 402f18 <evaltree+0x158>
  4030b8:	17ffff7a 	b	402ea0 <evaltree+0xe0>
  4030bc:	f94006a0 	ldr	x0, [x21, #8]
  4030c0:	121f02c1 	and	w1, w22, #0x2
  4030c4:	97ffff3f 	bl	402dc0 <evaltree>
  4030c8:	2a0003f3 	mov	w19, w0
  4030cc:	17ffffe8 	b	40306c <evaltree+0x2ac>
  4030d0:	f0000163 	adrp	x3, 432000 <signal_names+0x100>
  4030d4:	f944cc60 	ldr	x0, [x3, #2456]
  4030d8:	d63f0000 	blr	x0
  4030dc:	d503201f 	nop

00000000004030e0 <evalcase>:
  4030e0:	a9ba7bfd 	stp	x29, x30, [sp, #-96]!
  4030e4:	90000182 	adrp	x2, 433000 <__dso_handle>
  4030e8:	910003fd 	mov	x29, sp
  4030ec:	a9025bf5 	stp	x21, x22, [sp, #32]
  4030f0:	f0000175 	adrp	x21, 432000 <signal_names+0x100>
  4030f4:	b9433442 	ldr	w2, [x2, #820]
  4030f8:	b9400404 	ldr	w4, [x0, #4]
  4030fc:	2a0103f6 	mov	w22, w1
  403100:	f947e2a5 	ldr	x5, [x21, #4032]
  403104:	51000443 	sub	w3, w2, #0x1
  403108:	7100005f 	cmp	w2, #0x0
  40310c:	4b030083 	sub	w3, w4, w3
  403110:	1a841063 	csel	w3, w3, w4, ne  // ne = any
  403114:	a90153f3 	stp	x19, x20, [sp, #16]
  403118:	aa0003f3 	mov	x19, x0
  40311c:	a90363f7 	stp	x23, x24, [sp, #48]
  403120:	910123e2 	add	x2, sp, #0x48
  403124:	aa0203e1 	mov	x1, x2
  403128:	f9442aa6 	ldr	x6, [x21, #2128]
  40312c:	b90000a3 	str	w3, [x5]
  403130:	f943d2a7 	ldr	x7, [x21, #1952]
  403134:	f9002be1 	str	x1, [sp, #80]
  403138:	f9459aa3 	ldr	x3, [x21, #2864]
  40313c:	f94000e2 	ldr	x2, [x7]
  403140:	f9002fe2 	str	x2, [sp, #88]
  403144:	d2800002 	mov	x2, #0x0                   	// #0
  403148:	f9400400 	ldr	x0, [x0, #8]
  40314c:	52800042 	mov	w2, #0x2                   	// #2
  403150:	b90000c4 	str	w4, [x6]
  403154:	d63f0060 	blr	x3
  403158:	f9400a77 	ldr	x23, [x19, #16]
  40315c:	f9455eb8 	ldr	x24, [x21, #2744]
  403160:	f94712b4 	ldr	x20, [x21, #3616]
  403164:	b4000217 	cbz	x23, 4031a4 <evalcase+0xc4>
  403168:	b9400300 	ldr	w0, [x24]
  40316c:	350001c0 	cbnz	w0, 4031a4 <evalcase+0xc4>
  403170:	f9400af3 	ldr	x19, [x23, #16]
  403174:	b5000093 	cbnz	x19, 403184 <evalcase+0xa4>
  403178:	14000018 	b	4031d8 <evalcase+0xf8>
  40317c:	f9400673 	ldr	x19, [x19, #8]
  403180:	b40002d3 	cbz	x19, 4031d8 <evalcase+0xf8>
  403184:	f94027e2 	ldr	x2, [sp, #72]
  403188:	aa1303e0 	mov	x0, x19
  40318c:	f9400441 	ldr	x1, [x2, #8]
  403190:	d63f0280 	blr	x20
  403194:	34ffff40 	cbz	w0, 40317c <evalcase+0x9c>
  403198:	f9455ea0 	ldr	x0, [x21, #2744]
  40319c:	b9400000 	ldr	w0, [x0]
  4031a0:	34000220 	cbz	w0, 4031e4 <evalcase+0x104>
  4031a4:	52800000 	mov	w0, #0x0                   	// #0
  4031a8:	f943d2b5 	ldr	x21, [x21, #1952]
  4031ac:	f0000163 	adrp	x3, 432000 <signal_names+0x100>
  4031b0:	f9402fe1 	ldr	x1, [sp, #88]
  4031b4:	f94002a2 	ldr	x2, [x21]
  4031b8:	eb020021 	subs	x1, x1, x2
  4031bc:	d2800002 	mov	x2, #0x0                   	// #0
  4031c0:	540001c1 	b.ne	4031f8 <evalcase+0x118>  // b.any
  4031c4:	a94153f3 	ldp	x19, x20, [sp, #16]
  4031c8:	a9425bf5 	ldp	x21, x22, [sp, #32]
  4031cc:	a94363f7 	ldp	x23, x24, [sp, #48]
  4031d0:	a8c67bfd 	ldp	x29, x30, [sp], #96
  4031d4:	d65f03c0 	ret
  4031d8:	f94006f7 	ldr	x23, [x23, #8]
  4031dc:	b5fffc77 	cbnz	x23, 403168 <evalcase+0x88>
  4031e0:	17fffff1 	b	4031a4 <evalcase+0xc4>
  4031e4:	f9400ee0 	ldr	x0, [x23, #24]
  4031e8:	b4fffde0 	cbz	x0, 4031a4 <evalcase+0xc4>
  4031ec:	2a1603e1 	mov	w1, w22
  4031f0:	97fffef4 	bl	402dc0 <evaltree>
  4031f4:	17ffffed 	b	4031a8 <evalcase+0xc8>
  4031f8:	f944cc60 	ldr	x0, [x3, #2456]
  4031fc:	d63f0000 	blr	x0

0000000000403200 <evalfor>:
  403200:	a9b97bfd 	stp	x29, x30, [sp, #-112]!
  403204:	910003fd 	mov	x29, sp
  403208:	a90363f7 	stp	x23, x24, [sp, #48]
  40320c:	90000198 	adrp	x24, 433000 <__dso_handle>
  403210:	910163f7 	add	x23, sp, #0x58
  403214:	a90153f3 	stp	x19, x20, [sp, #16]
  403218:	aa0003f4 	mov	x20, x0
  40321c:	b9433702 	ldr	w2, [x24, #820]
  403220:	a9025bf5 	stp	x21, x22, [sp, #32]
  403224:	f0000176 	adrp	x22, 432000 <signal_names+0x100>
  403228:	51000440 	sub	w0, w2, #0x1
  40322c:	f9442ac5 	ldr	x5, [x22, #2128]
  403230:	7100005f 	cmp	w2, #0x0
  403234:	f947e2c4 	ldr	x4, [x22, #4032]
  403238:	2a0103f5 	mov	w21, w1
  40323c:	f943d2c3 	ldr	x3, [x22, #1952]
  403240:	f90033f7 	str	x23, [sp, #96]
  403244:	b9400682 	ldr	w2, [x20, #4]
  403248:	f9400693 	ldr	x19, [x20, #8]
  40324c:	f9400061 	ldr	x1, [x3]
  403250:	f90037e1 	str	x1, [sp, #104]
  403254:	d2800001 	mov	x1, #0x0                   	// #0
  403258:	4b000040 	sub	w0, w2, w0
  40325c:	f90023f9 	str	x25, [sp, #64]
  403260:	1a821000 	csel	w0, w0, w2, ne  // ne = any
  403264:	b90000a2 	str	w2, [x5]
  403268:	b9000080 	str	w0, [x4]
  40326c:	b4000153 	cbz	x19, 403294 <evalfor+0x94>
  403270:	f9459ad9 	ldr	x25, [x22, #2864]
  403274:	d503201f 	nop
  403278:	aa1303e0 	mov	x0, x19
  40327c:	aa1703e1 	mov	x1, x23
  403280:	52800062 	mov	w2, #0x3                   	// #3
  403284:	d63f0320 	blr	x25
  403288:	f9400673 	ldr	x19, [x19, #8]
  40328c:	b5ffff73 	cbnz	x19, 403278 <evalfor+0x78>
  403290:	f94033f7 	ldr	x23, [sp, #96]
  403294:	121f02b5 	and	w21, w21, #0x2
  403298:	f94756c0 	ldr	x0, [x22, #3752]
  40329c:	b9400001 	ldr	w1, [x0]
  4032a0:	f90002ff 	str	xzr, [x23]
  4032a4:	11000422 	add	w2, w1, #0x1
  4032a8:	b9000002 	str	w2, [x0]
  4032ac:	f9402ff3 	ldr	x19, [sp, #88]
  4032b0:	b40005d3 	cbz	x19, 403368 <evalfor+0x168>
  4032b4:	f946e6d9 	ldr	x25, [x22, #3528]
  4032b8:	910cd318 	add	x24, x24, #0x334
  4032bc:	f9455ed7 	ldr	x23, [x22, #2744]
  4032c0:	14000005 	b	4032d4 <evalfor+0xd4>
  4032c4:	721e783f 	tst	w1, #0xfffffffd
  4032c8:	540002c1 	b.ne	403320 <evalfor+0x120>  // b.any
  4032cc:	f9400273 	ldr	x19, [x19]
  4032d0:	b4000293 	cbz	x19, 403320 <evalfor+0x120>
  4032d4:	f9400661 	ldr	x1, [x19, #8]
  4032d8:	52800002 	mov	w2, #0x0                   	// #0
  4032dc:	f9400e80 	ldr	x0, [x20, #24]
  4032e0:	d63f0320 	blr	x25
  4032e4:	f9400a80 	ldr	x0, [x20, #16]
  4032e8:	2a1503e1 	mov	w1, w21
  4032ec:	97fffeb5 	bl	402dc0 <evaltree>
  4032f0:	b94002e1 	ldr	w1, [x23]
  4032f4:	51000422 	sub	w2, w1, #0x1
  4032f8:	7100045f 	cmp	w2, #0x1
  4032fc:	54fffe48 	b.hi	4032c4 <evalfor+0xc4>  // b.pmore
  403300:	b9400702 	ldr	w2, [x24, #4]
  403304:	51000442 	sub	w2, w2, #0x1
  403308:	b9000702 	str	w2, [x24, #4]
  40330c:	7100005f 	cmp	w2, #0x0
  403310:	5400008c 	b.gt	403320 <evalfor+0x120>
  403314:	b90002ff 	str	wzr, [x23]
  403318:	721e783f 	tst	w1, #0xfffffffd
  40331c:	54fffd80 	b.eq	4032cc <evalfor+0xcc>  // b.none
  403320:	f94756c1 	ldr	x1, [x22, #3752]
  403324:	b9400021 	ldr	w1, [x1]
  403328:	51000421 	sub	w1, w1, #0x1
  40332c:	f94756c2 	ldr	x2, [x22, #3752]
  403330:	f0000163 	adrp	x3, 432000 <signal_names+0x100>
  403334:	f943d2d6 	ldr	x22, [x22, #1952]
  403338:	b9000041 	str	w1, [x2]
  40333c:	f94037e1 	ldr	x1, [sp, #104]
  403340:	f94002c2 	ldr	x2, [x22]
  403344:	eb020021 	subs	x1, x1, x2
  403348:	d2800002 	mov	x2, #0x0                   	// #0
  40334c:	54000121 	b.ne	403370 <evalfor+0x170>  // b.any
  403350:	a94153f3 	ldp	x19, x20, [sp, #16]
  403354:	a9425bf5 	ldp	x21, x22, [sp, #32]
  403358:	a94363f7 	ldp	x23, x24, [sp, #48]
  40335c:	f94023f9 	ldr	x25, [sp, #64]
  403360:	a8c77bfd 	ldp	x29, x30, [sp], #112
  403364:	d65f03c0 	ret
  403368:	52800000 	mov	w0, #0x0                   	// #0
  40336c:	17fffff0 	b	40332c <evalfor+0x12c>
  403370:	f944cc60 	ldr	x0, [x3, #2456]
  403374:	d63f0000 	blr	x0

0000000000403378 <evalfun>:
  403378:	a9a57bfd 	stp	x29, x30, [sp, #-432]!
  40337c:	2a0103e7 	mov	w7, w1
  403380:	90000185 	adrp	x5, 433000 <__dso_handle>
  403384:	910003fd 	mov	x29, sp
  403388:	a90153f3 	stp	x19, x20, [sp, #16]
  40338c:	f0000173 	adrp	x19, 432000 <signal_names+0x100>
  403390:	f945ea64 	ldr	x4, [x19, #3024]
  403394:	f9001be0 	str	x0, [sp, #48]
  403398:	f943d261 	ldr	x1, [x19, #1952]
  40339c:	a9025bf5 	stp	x21, x22, [sp, #32]
  4033a0:	f945d666 	ldr	x6, [x19, #2984]
  4033a4:	f9400028 	ldr	x8, [x1]
  4033a8:	f900d7e8 	str	x8, [sp, #424]
  4033ac:	d2800008 	mov	x8, #0x0                   	// #0
  4033b0:	f9475673 	ldr	x19, [x19, #3752]
  4033b4:	f90023e2 	str	x2, [sp, #64]
  4033b8:	a9400480 	ldp	x0, x1, [x4]
  4033bc:	a90587e0 	stp	x0, x1, [sp, #88]
  4033c0:	b94334a2 	ldr	w2, [x5, #820]
  4033c4:	f9400880 	ldr	x0, [x4, #16]
  4033c8:	f90037e0 	str	x0, [sp, #104]
  4033cc:	f94000c1 	ldr	x1, [x6]
  4033d0:	f9002be1 	str	x1, [sp, #80]
  4033d4:	b9400261 	ldr	w1, [x19]
  4033d8:	f0000173 	adrp	x19, 432000 <signal_names+0x100>
  4033dc:	b9003fe1 	str	w1, [sp, #60]
  4033e0:	9101c3e0 	add	x0, sp, #0x70
  4033e4:	f9436e61 	ldr	x1, [x19, #1752]
  4033e8:	b9003be2 	str	w2, [sp, #56]
  4033ec:	29090fe7 	stp	w7, w3, [sp, #72]
  4033f0:	d63f0020 	blr	x1
  4033f4:	2a0003f4 	mov	w20, w0
  4033f8:	f0000173 	adrp	x19, 432000 <signal_names+0x100>
  4033fc:	f945a260 	ldr	x0, [x19, #2880]
  403400:	b9400001 	ldr	w1, [x0]
  403404:	11000421 	add	w1, w1, #0x1
  403408:	35000554 	cbnz	w20, 4034b0 <evalfun+0x138>
  40340c:	b9000001 	str	w1, [x0]
  403410:	f945ea61 	ldr	x1, [x19, #3024]
  403414:	9101c3e3 	add	x3, sp, #0x70
  403418:	f945d662 	ldr	x2, [x19, #2984]
  40341c:	90000184 	adrp	x4, 433000 <__dso_handle>
  403420:	f9401be5 	ldr	x5, [sp, #48]
  403424:	3900103f 	strb	wzr, [x1, #4]
  403428:	f9475661 	ldr	x1, [x19, #3752]
  40342c:	f9000043 	str	x3, [x2]
  403430:	b94000a2 	ldr	w2, [x5]
  403434:	b9400ca3 	ldr	w3, [x5, #12]
  403438:	11000442 	add	w2, w2, #0x1
  40343c:	b90000a2 	str	w2, [x5]
  403440:	b9033483 	str	w3, [x4, #820]
  403444:	b900003f 	str	wzr, [x1]
  403448:	b9400001 	ldr	w1, [x0]
  40344c:	51000421 	sub	w1, w1, #0x1
  403450:	b9000001 	str	w1, [x0]
  403454:	35000081 	cbnz	w1, 403464 <evalfun+0xec>
  403458:	f9434673 	ldr	x19, [x19, #1672]
  40345c:	b9400260 	ldr	w0, [x19]
  403460:	350008c0 	cbnz	w0, 403578 <evalfun+0x200>
  403464:	d0000120 	adrp	x0, 429000 <prec+0x170>
  403468:	b9404be1 	ldr	w1, [sp, #72]
  40346c:	f0000173 	adrp	x19, 432000 <signal_names+0x100>
  403470:	fd400800 	ldr	d0, [x0, #16]
  403474:	51000424 	sub	w4, w1, #0x1
  403478:	f9401be0 	ldr	x0, [sp, #48]
  40347c:	f94023e1 	ldr	x1, [sp, #64]
  403480:	f945ea62 	ldr	x2, [x19, #3024]
  403484:	91002023 	add	x3, x1, #0x8
  403488:	f9400c00 	ldr	x0, [x0, #24]
  40348c:	b9404fe1 	ldr	w1, [sp, #76]
  403490:	b9000044 	str	w4, [x2]
  403494:	121f0021 	and	w1, w1, #0x2
  403498:	f9000443 	str	x3, [x2, #8]
  40349c:	fd000840 	str	d0, [x2, #16]
  4034a0:	97fffe48 	bl	402dc0 <evaltree>
  4034a4:	f945a273 	ldr	x19, [x19, #2880]
  4034a8:	b9400261 	ldr	w1, [x19]
  4034ac:	11000421 	add	w1, w1, #0x1
  4034b0:	f0000173 	adrp	x19, 432000 <signal_names+0x100>
  4034b4:	f945a275 	ldr	x21, [x19, #2880]
  4034b8:	b90002a1 	str	w1, [x21]
  4034bc:	f9475661 	ldr	x1, [x19, #3752]
  4034c0:	90000182 	adrp	x2, 433000 <__dso_handle>
  4034c4:	b9403be3 	ldr	w3, [sp, #56]
  4034c8:	b9033443 	str	w3, [x2, #820]
  4034cc:	b9403fe2 	ldr	w2, [sp, #60]
  4034d0:	b9000022 	str	w2, [x1]
  4034d4:	f9450a61 	ldr	x1, [x19, #2576]
  4034d8:	f9401be0 	ldr	x0, [sp, #48]
  4034dc:	d63f0020 	blr	x1
  4034e0:	f9441e61 	ldr	x1, [x19, #2104]
  4034e4:	f945ea76 	ldr	x22, [x19, #3024]
  4034e8:	aa1603e0 	mov	x0, x22
  4034ec:	d63f0020 	blr	x1
  4034f0:	f945d660 	ldr	x0, [x19, #2984]
  4034f4:	a9458fe2 	ldp	x2, x3, [sp, #88]
  4034f8:	a9000ec2 	stp	x2, x3, [x22]
  4034fc:	f94037e1 	ldr	x1, [sp, #104]
  403500:	f9000ac1 	str	x1, [x22, #16]
  403504:	f9402be1 	ldr	x1, [sp, #80]
  403508:	f9000001 	str	x1, [x0]
  40350c:	b94002a0 	ldr	w0, [x21]
  403510:	51000400 	sub	w0, w0, #0x1
  403514:	b90002a0 	str	w0, [x21]
  403518:	34000220 	cbz	w0, 40355c <evalfun+0x1e4>
  40351c:	f0000173 	adrp	x19, 432000 <signal_names+0x100>
  403520:	f9455e61 	ldr	x1, [x19, #2744]
  403524:	f943d273 	ldr	x19, [x19, #1952]
  403528:	b9400020 	ldr	w0, [x1]
  40352c:	f940d7e2 	ldr	x2, [sp, #424]
  403530:	f9400263 	ldr	x3, [x19]
  403534:	eb030042 	subs	x2, x2, x3
  403538:	d2800003 	mov	x3, #0x0                   	// #0
  40353c:	121c7400 	and	w0, w0, #0xfffffff3
  403540:	b9000020 	str	w0, [x1]
  403544:	54000221 	b.ne	403588 <evalfun+0x210>  // b.any
  403548:	2a1403e0 	mov	w0, w20
  40354c:	a94153f3 	ldp	x19, x20, [sp, #16]
  403550:	a9425bf5 	ldp	x21, x22, [sp, #32]
  403554:	a8db7bfd 	ldp	x29, x30, [sp], #432
  403558:	d65f03c0 	ret
  40355c:	f9434673 	ldr	x19, [x19, #1672]
  403560:	b9400260 	ldr	w0, [x19]
  403564:	34fffdc0 	cbz	w0, 40351c <evalfun+0x1a4>
  403568:	f0000173 	adrp	x19, 432000 <signal_names+0x100>
  40356c:	f943d660 	ldr	x0, [x19, #1960]
  403570:	d63f0000 	blr	x0
  403574:	17ffffea 	b	40351c <evalfun+0x1a4>
  403578:	f0000173 	adrp	x19, 432000 <signal_names+0x100>
  40357c:	f943d660 	ldr	x0, [x19, #1960]
  403580:	d63f0000 	blr	x0
  403584:	17ffffb8 	b	403464 <evalfun+0xec>
  403588:	f0000173 	adrp	x19, 432000 <signal_names+0x100>
  40358c:	f944ce60 	ldr	x0, [x19, #2456]
  403590:	d63f0000 	blr	x0
  403594:	d503201f 	nop

0000000000403598 <evalpipe>:
  403598:	a9b77bfd 	stp	x29, x30, [sp, #-144]!
  40359c:	910003fd 	mov	x29, sp
  4035a0:	a90363f7 	stp	x23, x24, [sp, #48]
  4035a4:	f0000177 	adrp	x23, 432000 <signal_names+0x100>
  4035a8:	f943d2e2 	ldr	x2, [x23, #1952]
  4035ac:	a9025bf5 	stp	x21, x22, [sp, #32]
  4035b0:	aa0003f5 	mov	x21, x0
  4035b4:	f9400400 	ldr	x0, [x0, #8]
  4035b8:	b9006fe1 	str	w1, [sp, #108]
  4035bc:	f9400041 	ldr	x1, [x2]
  4035c0:	f90047e1 	str	x1, [sp, #136]
  4035c4:	d2800001 	mov	x1, #0x0                   	// #0
  4035c8:	a90153f3 	stp	x19, x20, [sp, #16]
  4035cc:	b4000de0 	cbz	x0, 403788 <evalpipe+0x1f0>
  4035d0:	f9400000 	ldr	x0, [x0]
  4035d4:	11000421 	add	w1, w1, #0x1
  4035d8:	b5ffffc0 	cbnz	x0, 4035d0 <evalpipe+0x38>
  4035dc:	f945a2e2 	ldr	x2, [x23, #2880]
  4035e0:	f0000164 	adrp	x4, 432000 <signal_names+0x100>
  4035e4:	b9400040 	ldr	w0, [x2]
  4035e8:	11000400 	add	w0, w0, #0x1
  4035ec:	b9000040 	str	w0, [x2]
  4035f0:	f9459082 	ldr	x2, [x4, #2848]
  4035f4:	aa1503e0 	mov	x0, x21
  4035f8:	d63f0040 	blr	x2
  4035fc:	aa0003f6 	mov	x22, x0
  403600:	f94006b3 	ldr	x19, [x21, #8]
  403604:	b4000593 	cbz	x19, 4036b4 <evalpipe+0x11c>
  403608:	a9046bf9 	stp	x25, x26, [sp, #64]
  40360c:	910203f8 	add	x24, sp, #0x80
  403610:	12800014 	mov	w20, #0xffffffff            	// #-1
  403614:	f9435af9 	ldr	x25, [x23, #1712]
  403618:	a90573fb 	stp	x27, x28, [sp, #80]
  40361c:	9101c3fb 	add	x27, sp, #0x70
  403620:	f9446efa 	ldr	x26, [x23, #2264]
  403624:	d503201f 	nop
  403628:	f940067c 	ldr	x28, [x19, #8]
  40362c:	b9400380 	ldr	w0, [x28]
  403630:	35000100 	cbnz	w0, 403650 <evalpipe+0xb8>
  403634:	f9400b80 	ldr	x0, [x28, #16]
  403638:	b40000c0 	cbz	x0, 403650 <evalpipe+0xb8>
  40363c:	f9400800 	ldr	x0, [x0, #16]
  403640:	d63f0320 	blr	x25
  403644:	39400000 	ldrb	w0, [x0]
  403648:	34000720 	cbz	w0, 40372c <evalpipe+0x194>
  40364c:	d503201f 	nop
  403650:	f9400260 	ldr	x0, [x19]
  403654:	12800001 	mov	w1, #0xffffffff            	// #-1
  403658:	b90087e1 	str	w1, [sp, #132]
  40365c:	b40000c0 	cbz	x0, 403674 <evalpipe+0xdc>
  403660:	f0000164 	adrp	x4, 432000 <signal_names+0x100>
  403664:	aa1803e0 	mov	x0, x24
  403668:	f944e081 	ldr	x1, [x4, #2496]
  40366c:	d63f0020 	blr	x1
  403670:	37f80e60 	tbnz	w0, #31, 40383c <evalpipe+0x2a4>
  403674:	f0000164 	adrp	x4, 432000 <signal_names+0x100>
  403678:	b94006a2 	ldr	w2, [x21, #4]
  40367c:	f9400661 	ldr	x1, [x19, #8]
  403680:	aa1603e0 	mov	x0, x22
  403684:	f9467c83 	ldr	x3, [x4, #3320]
  403688:	d63f0060 	blr	x3
  40368c:	34000820 	cbz	w0, 403790 <evalpipe+0x1f8>
  403690:	36f803d4 	tbz	w20, #31, 403708 <evalpipe+0x170>
  403694:	f0000164 	adrp	x4, 432000 <signal_names+0x100>
  403698:	295003f4 	ldp	w20, w0, [sp, #128]
  40369c:	f947b881 	ldr	x1, [x4, #3952]
  4036a0:	d63f0020 	blr	x1
  4036a4:	f9400273 	ldr	x19, [x19]
  4036a8:	b5fffc13 	cbnz	x19, 403628 <evalpipe+0x90>
  4036ac:	a9446bf9 	ldp	x25, x26, [sp, #64]
  4036b0:	a94573fb 	ldp	x27, x28, [sp, #80]
  4036b4:	52800000 	mov	w0, #0x0                   	// #0
  4036b8:	b94006a1 	ldr	w1, [x21, #4]
  4036bc:	340005c1 	cbz	w1, 403774 <evalpipe+0x1dc>
  4036c0:	f945a2e2 	ldr	x2, [x23, #2880]
  4036c4:	f0000164 	adrp	x4, 432000 <signal_names+0x100>
  4036c8:	b9400041 	ldr	w1, [x2]
  4036cc:	51000421 	sub	w1, w1, #0x1
  4036d0:	b9000041 	str	w1, [x2]
  4036d4:	34000401 	cbz	w1, 403754 <evalpipe+0x1bc>
  4036d8:	f943d2f7 	ldr	x23, [x23, #1952]
  4036dc:	f0000164 	adrp	x4, 432000 <signal_names+0x100>
  4036e0:	f94047e1 	ldr	x1, [sp, #136]
  4036e4:	f94002e2 	ldr	x2, [x23]
  4036e8:	eb020021 	subs	x1, x1, x2
  4036ec:	d2800002 	mov	x2, #0x0                   	// #0
  4036f0:	54000c01 	b.ne	403870 <evalpipe+0x2d8>  // b.any
  4036f4:	a94153f3 	ldp	x19, x20, [sp, #16]
  4036f8:	a9425bf5 	ldp	x21, x22, [sp, #32]
  4036fc:	a94363f7 	ldp	x23, x24, [sp, #48]
  403700:	a8c97bfd 	ldp	x29, x30, [sp], #144
  403704:	d65f03c0 	ret
  403708:	f947bae1 	ldr	x1, [x23, #3952]
  40370c:	2a1403e0 	mov	w0, w20
  403710:	aa0103fc 	mov	x28, x1
  403714:	d63f0020 	blr	x1
  403718:	295003f4 	ldp	w20, w0, [sp, #128]
  40371c:	d63f0380 	blr	x28
  403720:	f9400273 	ldr	x19, [x19]
  403724:	b5fff833 	cbnz	x19, 403628 <evalpipe+0x90>
  403728:	17ffffe1 	b	4036ac <evalpipe+0x114>
  40372c:	f9400b80 	ldr	x0, [x28, #16]
  403730:	f0000164 	adrp	x4, 432000 <signal_names+0x100>
  403734:	f9403b43 	ldr	x3, [x26, #112]
  403738:	aa1b03e1 	mov	x1, x27
  40373c:	f9442484 	ldr	x4, [x4, #2120]
  403740:	91001463 	add	x3, x3, #0x5
  403744:	f9400800 	ldr	x0, [x0, #16]
  403748:	52800002 	mov	w2, #0x0                   	// #0
  40374c:	d63f0080 	blr	x4
  403750:	17ffffc0 	b	403650 <evalpipe+0xb8>
  403754:	f94346e1 	ldr	x1, [x23, #1672]
  403758:	b9400021 	ldr	w1, [x1]
  40375c:	34fffbe1 	cbz	w1, 4036d8 <evalpipe+0x140>
  403760:	b9006fe0 	str	w0, [sp, #108]
  403764:	f943d480 	ldr	x0, [x4, #1960]
  403768:	d63f0000 	blr	x0
  40376c:	b9406fe0 	ldr	w0, [sp, #108]
  403770:	17ffffda 	b	4036d8 <evalpipe+0x140>
  403774:	f0000164 	adrp	x4, 432000 <signal_names+0x100>
  403778:	aa1603e0 	mov	x0, x22
  40377c:	f9453481 	ldr	x1, [x4, #2664]
  403780:	d63f0020 	blr	x1
  403784:	17ffffcf 	b	4036c0 <evalpipe+0x128>
  403788:	52800001 	mov	w1, #0x0                   	// #0
  40378c:	17ffff94 	b	4035dc <evalpipe+0x44>
  403790:	f945a2e1 	ldr	x1, [x23, #2880]
  403794:	b9400020 	ldr	w0, [x1]
  403798:	51000400 	sub	w0, w0, #0x1
  40379c:	b9000020 	str	w0, [x1]
  4037a0:	35000080 	cbnz	w0, 4037b0 <evalpipe+0x218>
  4037a4:	f94346f7 	ldr	x23, [x23, #1672]
  4037a8:	b94002e0 	ldr	w0, [x23]
  4037ac:	350005a0 	cbnz	w0, 403860 <evalpipe+0x2c8>
  4037b0:	b94087e0 	ldr	w0, [sp, #132]
  4037b4:	37f800a0 	tbnz	w0, #31, 4037c8 <evalpipe+0x230>
  4037b8:	f0000164 	adrp	x4, 432000 <signal_names+0x100>
  4037bc:	b94083e0 	ldr	w0, [sp, #128]
  4037c0:	f947b881 	ldr	x1, [x4, #3952]
  4037c4:	d63f0020 	blr	x1
  4037c8:	7100029f 	cmp	w20, #0x0
  4037cc:	5400014d 	b.le	4037f4 <evalpipe+0x25c>
  4037d0:	f0000164 	adrp	x4, 432000 <signal_names+0x100>
  4037d4:	52800001 	mov	w1, #0x0                   	// #0
  4037d8:	2a1403e0 	mov	w0, w20
  4037dc:	f9444882 	ldr	x2, [x4, #2192]
  4037e0:	d63f0040 	blr	x2
  4037e4:	f0000164 	adrp	x4, 432000 <signal_names+0x100>
  4037e8:	2a1403e0 	mov	w0, w20
  4037ec:	f947b881 	ldr	x1, [x4, #3952]
  4037f0:	d63f0020 	blr	x1
  4037f4:	b94087e0 	ldr	w0, [sp, #132]
  4037f8:	7100041f 	cmp	w0, #0x1
  4037fc:	5400012d 	b.le	403820 <evalpipe+0x288>
  403800:	f0000164 	adrp	x4, 432000 <signal_names+0x100>
  403804:	52800021 	mov	w1, #0x1                   	// #1
  403808:	f9444882 	ldr	x2, [x4, #2192]
  40380c:	d63f0040 	blr	x2
  403810:	f0000164 	adrp	x4, 432000 <signal_names+0x100>
  403814:	b94087e0 	ldr	w0, [sp, #132]
  403818:	f947b881 	ldr	x1, [x4, #3952]
  40381c:	d63f0020 	blr	x1
  403820:	f9400660 	ldr	x0, [x19, #8]
  403824:	b9406fe1 	ldr	w1, [sp, #108]
  403828:	32000021 	orr	w1, w1, #0x1
  40382c:	97fffd65 	bl	402dc0 <evaltree>
  403830:	f0000164 	adrp	x4, 432000 <signal_names+0x100>
  403834:	f944c480 	ldr	x0, [x4, #2440]
  403838:	d63f0000 	blr	x0
  40383c:	f0000164 	adrp	x4, 432000 <signal_names+0x100>
  403840:	2a1403e0 	mov	w0, w20
  403844:	f947b881 	ldr	x1, [x4, #3952]
  403848:	d63f0020 	blr	x1
  40384c:	f0000164 	adrp	x4, 432000 <signal_names+0x100>
  403850:	b0000120 	adrp	x0, 428000 <__subtf3+0x758>
  403854:	913f8000 	add	x0, x0, #0xfe0
  403858:	f9461481 	ldr	x1, [x4, #3112]
  40385c:	d63f0020 	blr	x1
  403860:	f0000164 	adrp	x4, 432000 <signal_names+0x100>
  403864:	f943d480 	ldr	x0, [x4, #1960]
  403868:	d63f0000 	blr	x0
  40386c:	17ffffd1 	b	4037b0 <evalpipe+0x218>
  403870:	f944cc80 	ldr	x0, [x4, #2456]
  403874:	a9046bf9 	stp	x25, x26, [sp, #64]
  403878:	a90573fb 	stp	x27, x28, [sp, #80]
  40387c:	d63f0000 	blr	x0

0000000000403880 <evalsubshell>:
  403880:	a9bb7bfd 	stp	x29, x30, [sp, #-80]!
  403884:	90000182 	adrp	x2, 433000 <__dso_handle>
  403888:	910003fd 	mov	x29, sp
  40388c:	f9001bf7 	str	x23, [sp, #48]
  403890:	b9400017 	ldr	w23, [x0]
  403894:	b9433443 	ldr	w3, [x2, #820]
  403898:	71000eff 	cmp	w23, #0x3
  40389c:	a90153f3 	stp	x19, x20, [sp, #16]
  4038a0:	51000462 	sub	w2, w3, #0x1
  4038a4:	f0000173 	adrp	x19, 432000 <signal_names+0x100>
  4038a8:	a9025bf5 	stp	x21, x22, [sp, #32]
  4038ac:	1a9f17f6 	cset	w22, eq  // eq = none
  4038b0:	7100007f 	cmp	w3, #0x0
  4038b4:	b9400403 	ldr	w3, [x0, #4]
  4038b8:	f9442a64 	ldr	x4, [x19, #2128]
  4038bc:	4b020062 	sub	w2, w3, w2
  4038c0:	aa0003f4 	mov	x20, x0
  4038c4:	2a0103f5 	mov	w21, w1
  4038c8:	f947e261 	ldr	x1, [x19, #4032]
  4038cc:	1a831042 	csel	w2, w2, w3, ne  // ne = any
  4038d0:	f9400800 	ldr	x0, [x0, #16]
  4038d4:	b9000083 	str	w3, [x4]
  4038d8:	b9000022 	str	w2, [x1]
  4038dc:	97fffcf9 	bl	402cc0 <expredir>
  4038e0:	f945a261 	ldr	x1, [x19, #2880]
  4038e4:	b9400020 	ldr	w0, [x1]
  4038e8:	11000400 	add	w0, w0, #0x1
  4038ec:	b9000020 	str	w0, [x1]
  4038f0:	71000eff 	cmp	w23, #0x3
  4038f4:	54000720 	b.eq	4039d8 <evalsubshell+0x158>  // b.none
  4038f8:	370003f5 	tbnz	w21, #0, 403974 <evalsubshell+0xf4>
  4038fc:	f0000164 	adrp	x4, 432000 <signal_names+0x100>
  403900:	52800021 	mov	w1, #0x1                   	// #1
  403904:	aa1403e0 	mov	x0, x20
  403908:	f9459082 	ldr	x2, [x4, #2848]
  40390c:	d63f0040 	blr	x2
  403910:	f0000164 	adrp	x4, 432000 <signal_names+0x100>
  403914:	2a1603e2 	mov	w2, w22
  403918:	aa1403e1 	mov	x1, x20
  40391c:	aa0003f6 	mov	x22, x0
  403920:	f9467c83 	ldr	x3, [x4, #3320]
  403924:	d63f0060 	blr	x3
  403928:	34000860 	cbz	w0, 403a34 <evalsubshell+0x1b4>
  40392c:	f0000164 	adrp	x4, 432000 <signal_names+0x100>
  403930:	aa1603e0 	mov	x0, x22
  403934:	f9453481 	ldr	x1, [x4, #2664]
  403938:	d63f0020 	blr	x1
  40393c:	f945a262 	ldr	x2, [x19, #2880]
  403940:	f0000164 	adrp	x4, 432000 <signal_names+0x100>
  403944:	b9400041 	ldr	w1, [x2]
  403948:	51000421 	sub	w1, w1, #0x1
  40394c:	b9000041 	str	w1, [x2]
  403950:	35000081 	cbnz	w1, 403960 <evalsubshell+0xe0>
  403954:	f9434673 	ldr	x19, [x19, #1672]
  403958:	b9400261 	ldr	w1, [x19]
  40395c:	35000581 	cbnz	w1, 403a0c <evalsubshell+0x18c>
  403960:	a94153f3 	ldp	x19, x20, [sp, #16]
  403964:	a9425bf5 	ldp	x21, x22, [sp, #32]
  403968:	f9401bf7 	ldr	x23, [sp, #48]
  40396c:	a8c57bfd 	ldp	x29, x30, [sp], #80
  403970:	d65f03c0 	ret
  403974:	f943e660 	ldr	x0, [x19, #1992]
  403978:	b9400000 	ldr	w0, [x0]
  40397c:	35fffc00 	cbnz	w0, 4038fc <evalsubshell+0x7c>
  403980:	f9464a60 	ldr	x0, [x19, #3216]
  403984:	d63f0000 	blr	x0
  403988:	f945a261 	ldr	x1, [x19, #2880]
  40398c:	f0000164 	adrp	x4, 432000 <signal_names+0x100>
  403990:	b9400020 	ldr	w0, [x1]
  403994:	51000400 	sub	w0, w0, #0x1
  403998:	b9000020 	str	w0, [x1]
  40399c:	35000080 	cbnz	w0, 4039ac <evalsubshell+0x12c>
  4039a0:	f9434673 	ldr	x19, [x19, #1672]
  4039a4:	b9400260 	ldr	w0, [x19]
  4039a8:	350004a0 	cbnz	w0, 403a3c <evalsubshell+0x1bc>
  4039ac:	f0000164 	adrp	x4, 432000 <signal_names+0x100>
  4039b0:	52800001 	mov	w1, #0x0                   	// #0
  4039b4:	f9400a80 	ldr	x0, [x20, #16]
  4039b8:	f9454882 	ldr	x2, [x4, #2704]
  4039bc:	d63f0040 	blr	x2
  4039c0:	f9400680 	ldr	x0, [x20, #8]
  4039c4:	2a1503e1 	mov	w1, w21
  4039c8:	97fffcfe 	bl	402dc0 <evaltree>
  4039cc:	f0000164 	adrp	x4, 432000 <signal_names+0x100>
  4039d0:	f944c480 	ldr	x0, [x4, #2440]
  4039d4:	d63f0000 	blr	x0
  4039d8:	f0000164 	adrp	x4, 432000 <signal_names+0x100>
  4039dc:	52800021 	mov	w1, #0x1                   	// #1
  4039e0:	aa1403e0 	mov	x0, x20
  4039e4:	f9459082 	ldr	x2, [x4, #2848]
  4039e8:	d63f0040 	blr	x2
  4039ec:	f0000164 	adrp	x4, 432000 <signal_names+0x100>
  4039f0:	2a1603e2 	mov	w2, w22
  4039f4:	aa1403e1 	mov	x1, x20
  4039f8:	f9467c83 	ldr	x3, [x4, #3320]
  4039fc:	d63f0060 	blr	x3
  403a00:	34000180 	cbz	w0, 403a30 <evalsubshell+0x1b0>
  403a04:	52800000 	mov	w0, #0x0                   	// #0
  403a08:	17ffffcd 	b	40393c <evalsubshell+0xbc>
  403a0c:	b9004fe0 	str	w0, [sp, #76]
  403a10:	f943d480 	ldr	x0, [x4, #1960]
  403a14:	d63f0000 	blr	x0
  403a18:	b9404fe0 	ldr	w0, [sp, #76]
  403a1c:	a94153f3 	ldp	x19, x20, [sp, #16]
  403a20:	a9425bf5 	ldp	x21, x22, [sp, #32]
  403a24:	f9401bf7 	ldr	x23, [sp, #48]
  403a28:	a8c57bfd 	ldp	x29, x30, [sp], #80
  403a2c:	d65f03c0 	ret
  403a30:	121e7ab5 	and	w21, w21, #0xfffffffd
  403a34:	320002b5 	orr	w21, w21, #0x1
  403a38:	17ffffd4 	b	403988 <evalsubshell+0x108>
  403a3c:	f943d480 	ldr	x0, [x4, #1960]
  403a40:	d63f0000 	blr	x0
  403a44:	17ffffda 	b	4039ac <evalsubshell+0x12c>

0000000000403a48 <evalloop>:
  403a48:	a9b87bfd 	stp	x29, x30, [sp, #-128]!
  403a4c:	910003fd 	mov	x29, sp
  403a50:	a9025bf5 	stp	x21, x22, [sp, #32]
  403a54:	f0000175 	adrp	x21, 432000 <signal_names+0x100>
  403a58:	aa0003f6 	mov	x22, x0
  403a5c:	f94756a2 	ldr	x2, [x21, #3752]
  403a60:	a90153f3 	stp	x19, x20, [sp, #16]
  403a64:	f943d2a3 	ldr	x3, [x21, #1952]
  403a68:	a90363f7 	stp	x23, x24, [sp, #48]
  403a6c:	b9400040 	ldr	w0, [x2]
  403a70:	910183f8 	add	x24, sp, #0x60
  403a74:	a9046bf9 	stp	x25, x26, [sp, #64]
  403a78:	121f0039 	and	w25, w1, #0x2
  403a7c:	9000001a 	adrp	x26, 403000 <evaltree+0x240>
  403a80:	f9400061 	ldr	x1, [x3]
  403a84:	f9003fe1 	str	x1, [sp, #120]
  403a88:	d2800001 	mov	x1, #0x0                   	// #0
  403a8c:	9103835a 	add	x26, x26, #0xe0
  403a90:	a90573fb 	stp	x27, x28, [sp, #80]
  403a94:	f0fffffb 	adrp	x27, 402000 <yylex+0x230>
  403a98:	9137037b 	add	x27, x27, #0xdc0
  403a9c:	11000400 	add	w0, w0, #0x1
  403aa0:	52800017 	mov	w23, #0x0                   	// #0
  403aa4:	b9000040 	str	w0, [x2]
  403aa8:	f0000164 	adrp	x4, 432000 <signal_names+0x100>
  403aac:	aa1803e0 	mov	x0, x24
  403ab0:	f94006d4 	ldr	x20, [x22, #8]
  403ab4:	f9469881 	ldr	x1, [x4, #3376]
  403ab8:	d63f0020 	blr	x1
  403abc:	b40002b4 	cbz	x20, 403b10 <evalloop+0xc8>
  403ac0:	f0000164 	adrp	x4, 432000 <signal_names+0x100>
  403ac4:	f9464480 	ldr	x0, [x4, #3208]
  403ac8:	d63f0000 	blr	x0
  403acc:	b9400293 	ldr	w19, [x20]
  403ad0:	7100227f 	cmp	w19, #0x8
  403ad4:	540013e0 	b.eq	403d50 <evalloop+0x308>  // b.none
  403ad8:	5400086c 	b.gt	403be4 <evalloop+0x19c>
  403adc:	71000a7f 	cmp	w19, #0x2
  403ae0:	54000fa0 	b.eq	403cd4 <evalloop+0x28c>  // b.none
  403ae4:	5400074d 	b.le	403bcc <evalloop+0x184>
  403ae8:	7100127f 	cmp	w19, #0x4
  403aec:	5400054c 	b.gt	403b94 <evalloop+0x14c>
  403af0:	90000002 	adrp	x2, 403000 <evaltree+0x240>
  403af4:	91220042 	add	x2, x2, #0x880
  403af8:	aa1403e0 	mov	x0, x20
  403afc:	52800041 	mov	w1, #0x2                   	// #2
  403b00:	d63f0040 	blr	x2
  403b04:	2a0003fc 	mov	w28, w0
  403b08:	f94792a2 	ldr	x2, [x21, #3872]
  403b0c:	b900005c 	str	w28, [x2]
  403b10:	f0000164 	adrp	x4, 432000 <signal_names+0x100>
  403b14:	f9464480 	ldr	x0, [x4, #3208]
  403b18:	d63f0000 	blr	x0
  403b1c:	f0000164 	adrp	x4, 432000 <signal_names+0x100>
  403b20:	aa1803e0 	mov	x0, x24
  403b24:	f944a481 	ldr	x1, [x4, #2376]
  403b28:	d63f0020 	blr	x1
  403b2c:	f9455ea2 	ldr	x2, [x21, #2744]
  403b30:	f94792a0 	ldr	x0, [x21, #3872]
  403b34:	b9400041 	ldr	w1, [x2]
  403b38:	51000423 	sub	w3, w1, #0x1
  403b3c:	b9400000 	ldr	w0, [x0]
  403b40:	7100047f 	cmp	w3, #0x1
  403b44:	54000a49 	b.ls	403c8c <evalloop+0x244>  // b.plast
  403b48:	7100103f 	cmp	w1, #0x4
  403b4c:	54000801 	b.ne	403c4c <evalloop+0x204>  // b.any
  403b50:	f94756a2 	ldr	x2, [x21, #3752]
  403b54:	f943d2b5 	ldr	x21, [x21, #1952]
  403b58:	b9400041 	ldr	w1, [x2]
  403b5c:	f9403fe3 	ldr	x3, [sp, #120]
  403b60:	f94002a4 	ldr	x4, [x21]
  403b64:	eb040063 	subs	x3, x3, x4
  403b68:	d2800004 	mov	x4, #0x0                   	// #0
  403b6c:	51000421 	sub	w1, w1, #0x1
  403b70:	b9000041 	str	w1, [x2]
  403b74:	54001121 	b.ne	403d98 <evalloop+0x350>  // b.any
  403b78:	a94153f3 	ldp	x19, x20, [sp, #16]
  403b7c:	a9425bf5 	ldp	x21, x22, [sp, #32]
  403b80:	a94363f7 	ldp	x23, x24, [sp, #48]
  403b84:	a9446bf9 	ldp	x25, x26, [sp, #64]
  403b88:	a94573fb 	ldp	x27, x28, [sp, #80]
  403b8c:	a8c87bfd 	ldp	x29, x30, [sp], #128
  403b90:	d65f03c0 	ret
  403b94:	f9400680 	ldr	x0, [x20, #8]
  403b98:	52800041 	mov	w1, #0x2                   	// #2
  403b9c:	51001673 	sub	w19, w19, #0x5
  403ba0:	97fffc88 	bl	402dc0 <evaltree>
  403ba4:	7100001f 	cmp	w0, #0x0
  403ba8:	1a9f17e0 	cset	w0, eq  // eq = none
  403bac:	6b00027f 	cmp	w19, w0
  403bb0:	54fffb00 	b.eq	403b10 <evalloop+0xc8>  // b.none
  403bb4:	f9455ea0 	ldr	x0, [x21, #2744]
  403bb8:	b9400000 	ldr	w0, [x0]
  403bbc:	35fffaa0 	cbnz	w0, 403b10 <evalloop+0xc8>
  403bc0:	aa1b03e2 	mov	x2, x27
  403bc4:	f9400a94 	ldr	x20, [x20, #16]
  403bc8:	17ffffcc 	b	403af8 <evalloop+0xb0>
  403bcc:	340007b3 	cbz	w19, 403cc0 <evalloop+0x278>
  403bd0:	7100067f 	cmp	w19, #0x1
  403bd4:	54000301 	b.ne	403c34 <evalloop+0x1ec>  // b.any
  403bd8:	90000002 	adrp	x2, 403000 <evaltree+0x240>
  403bdc:	91166042 	add	x2, x2, #0x598
  403be0:	17ffffc6 	b	403af8 <evalloop+0xb0>
  403be4:	7100327f 	cmp	w19, #0xc
  403be8:	54000720 	b.eq	403ccc <evalloop+0x284>  // b.none
  403bec:	5400012d 	b.le	403c10 <evalloop+0x1c8>
  403bf0:	71003a7f 	cmp	w19, #0xe
  403bf4:	54000201 	b.ne	403c34 <evalloop+0x1ec>  // b.any
  403bf8:	f0000164 	adrp	x4, 432000 <signal_names+0x100>
  403bfc:	aa1403e0 	mov	x0, x20
  403c00:	5280001c 	mov	w28, #0x0                   	// #0
  403c04:	f947b081 	ldr	x1, [x4, #3936]
  403c08:	d63f0020 	blr	x1
  403c0c:	17ffffbf 	b	403b08 <evalloop+0xc0>
  403c10:	71002a7f 	cmp	w19, #0xa
  403c14:	5400008c 	b.gt	403c24 <evalloop+0x1dc>
  403c18:	90000002 	adrp	x2, 403000 <evaltree+0x240>
  403c1c:	91292042 	add	x2, x2, #0xa48
  403c20:	17ffffb6 	b	403af8 <evalloop+0xb0>
  403c24:	90000002 	adrp	x2, 403000 <evaltree+0x240>
  403c28:	71002e7f 	cmp	w19, #0xb
  403c2c:	91080042 	add	x2, x2, #0x200
  403c30:	54fff640 	b.eq	403af8 <evalloop+0xb0>  // b.none
  403c34:	f9400680 	ldr	x0, [x20, #8]
  403c38:	52800041 	mov	w1, #0x2                   	// #2
  403c3c:	97fffc61 	bl	402dc0 <evaltree>
  403c40:	7100001f 	cmp	w0, #0x0
  403c44:	1a9f17fc 	cset	w28, eq  // eq = none
  403c48:	17ffffb0 	b	403b08 <evalloop+0xc0>
  403c4c:	35000301 	cbnz	w1, 403cac <evalloop+0x264>
  403c50:	b94002c1 	ldr	w1, [x22]
  403c54:	7100243f 	cmp	w1, #0x9
  403c58:	54000060 	b.eq	403c64 <evalloop+0x21c>  // b.none
  403c5c:	7100001f 	cmp	w0, #0x0
  403c60:	1a9f17e0 	cset	w0, eq  // eq = none
  403c64:	350002a0 	cbnz	w0, 403cb8 <evalloop+0x270>
  403c68:	f9400ac0 	ldr	x0, [x22, #16]
  403c6c:	2a1903e1 	mov	w1, w25
  403c70:	97fffc54 	bl	402dc0 <evaltree>
  403c74:	2a0003f7 	mov	w23, w0
  403c78:	f9455ea2 	ldr	x2, [x21, #2744]
  403c7c:	b9400041 	ldr	w1, [x2]
  403c80:	51000420 	sub	w0, w1, #0x1
  403c84:	7100041f 	cmp	w0, #0x1
  403c88:	54000128 	b.hi	403cac <evalloop+0x264>  // b.pmore
  403c8c:	90000183 	adrp	x3, 433000 <__dso_handle>
  403c90:	910cd063 	add	x3, x3, #0x334
  403c94:	b9400460 	ldr	w0, [x3, #4]
  403c98:	51000400 	sub	w0, w0, #0x1
  403c9c:	b9000460 	str	w0, [x3, #4]
  403ca0:	7100001f 	cmp	w0, #0x0
  403ca4:	540000ac 	b.gt	403cb8 <evalloop+0x270>
  403ca8:	b900005f 	str	wzr, [x2]
  403cac:	721e783f 	tst	w1, #0xfffffffd
  403cb0:	54ffefc0 	b.eq	403aa8 <evalloop+0x60>  // b.none
  403cb4:	d503201f 	nop
  403cb8:	2a1703e0 	mov	w0, w23
  403cbc:	17ffffa5 	b	403b50 <evalloop+0x108>
  403cc0:	b0000002 	adrp	x2, 404000 <evalbltin+0x108>
  403cc4:	91052042 	add	x2, x2, #0x148
  403cc8:	17ffff8c 	b	403af8 <evalloop+0xb0>
  403ccc:	aa1a03e2 	mov	x2, x26
  403cd0:	17ffff8a 	b	403af8 <evalloop+0xb0>
  403cd4:	90000180 	adrp	x0, 433000 <__dso_handle>
  403cd8:	b9400682 	ldr	w2, [x20, #4]
  403cdc:	f9442aa3 	ldr	x3, [x21, #2128]
  403ce0:	b9433401 	ldr	w1, [x0, #820]
  403ce4:	f947e2a4 	ldr	x4, [x21, #4032]
  403ce8:	7100003f 	cmp	w1, #0x0
  403cec:	51000421 	sub	w1, w1, #0x1
  403cf0:	b9000062 	str	w2, [x3]
  403cf4:	4b010041 	sub	w1, w2, w1
  403cf8:	f9400a80 	ldr	x0, [x20, #16]
  403cfc:	1a821021 	csel	w1, w1, w2, ne  // ne = any
  403d00:	b9000081 	str	w1, [x4]
  403d04:	97fffbef 	bl	402cc0 <expredir>
  403d08:	f0000164 	adrp	x4, 432000 <signal_names+0x100>
  403d0c:	f9400a80 	ldr	x0, [x20, #16]
  403d10:	f9437481 	ldr	x1, [x4, #1768]
  403d14:	d63f0020 	blr	x1
  403d18:	f0000164 	adrp	x4, 432000 <signal_names+0x100>
  403d1c:	52800021 	mov	w1, #0x1                   	// #1
  403d20:	f9400a80 	ldr	x0, [x20, #16]
  403d24:	f946e082 	ldr	x2, [x4, #3520]
  403d28:	d63f0040 	blr	x2
  403d2c:	2a0003fc 	mov	w28, w0
  403d30:	34000260 	cbz	w0, 403d7c <evalloop+0x334>
  403d34:	f9400a80 	ldr	x0, [x20, #16]
  403d38:	b4ffee80 	cbz	x0, 403b08 <evalloop+0xc0>
  403d3c:	f0000164 	adrp	x4, 432000 <signal_names+0x100>
  403d40:	52800000 	mov	w0, #0x0                   	// #0
  403d44:	f946d081 	ldr	x1, [x4, #3488]
  403d48:	d63f0020 	blr	x1
  403d4c:	17ffff6f 	b	403b08 <evalloop+0xc0>
  403d50:	f9400680 	ldr	x0, [x20, #8]
  403d54:	52800041 	mov	w1, #0x2                   	// #2
  403d58:	97fffc1a 	bl	402dc0 <evaltree>
  403d5c:	f9455ea1 	ldr	x1, [x21, #2744]
  403d60:	b940003c 	ldr	w28, [x1]
  403d64:	35ffed7c 	cbnz	w28, 403b10 <evalloop+0xc8>
  403d68:	34fff2c0 	cbz	w0, 403bc0 <evalloop+0x178>
  403d6c:	f9400e94 	ldr	x20, [x20, #24]
  403d70:	aa1b03e2 	mov	x2, x27
  403d74:	b5ffec34 	cbnz	x20, 403af8 <evalloop+0xb0>
  403d78:	17ffff64 	b	403b08 <evalloop+0xc0>
  403d7c:	f9400680 	ldr	x0, [x20, #8]
  403d80:	2a1303e1 	mov	w1, w19
  403d84:	97fffc0f 	bl	402dc0 <evaltree>
  403d88:	2a0003fc 	mov	w28, w0
  403d8c:	f9400a80 	ldr	x0, [x20, #16]
  403d90:	b5fffd60 	cbnz	x0, 403d3c <evalloop+0x2f4>
  403d94:	17ffff5d 	b	403b08 <evalloop+0xc0>
  403d98:	f0000164 	adrp	x4, 432000 <signal_names+0x100>
  403d9c:	f944cc80 	ldr	x0, [x4, #2456]
  403da0:	d63f0000 	blr	x0
  403da4:	d503201f 	nop

0000000000403da8 <evalstring>:
  403da8:	a9b87bfd 	stp	x29, x30, [sp, #-128]!
  403dac:	910003fd 	mov	x29, sp
  403db0:	a9025bf5 	stp	x21, x22, [sp, #32]
  403db4:	f0000176 	adrp	x22, 432000 <signal_names+0x100>
  403db8:	a9046bf9 	stp	x25, x26, [sp, #64]
  403dbc:	2a0103f9 	mov	w25, w1
  403dc0:	121f7b3a 	and	w26, w25, #0xfffffffe
  403dc4:	f943d2c1 	ldr	x1, [x22, #1952]
  403dc8:	a90153f3 	stp	x19, x20, [sp, #16]
  403dcc:	52800014 	mov	w20, #0x0                   	// #0
  403dd0:	f9400022 	ldr	x2, [x1]
  403dd4:	f9003fe2 	str	x2, [sp, #120]
  403dd8:	d2800002 	mov	x2, #0x0                   	// #0
  403ddc:	a90363f7 	stp	x23, x24, [sp, #48]
  403de0:	910183f7 	add	x23, sp, #0x60
  403de4:	f944cac1 	ldr	x1, [x22, #2448]
  403de8:	a90573fb 	stp	x27, x28, [sp, #80]
  403dec:	d63f0020 	blr	x1
  403df0:	aa0003fc 	mov	x28, x0
  403df4:	f94572c1 	ldr	x1, [x22, #2784]
  403df8:	d63f0020 	blr	x1
  403dfc:	f9469ac1 	ldr	x1, [x22, #3376]
  403e00:	aa1703e0 	mov	x0, x23
  403e04:	d63f0020 	blr	x1
  403e08:	f94422d8 	ldr	x24, [x22, #2112]
  403e0c:	52800000 	mov	w0, #0x0                   	// #0
  403e10:	f9466ed5 	ldr	x21, [x22, #3288]
  403e14:	f946fedb 	ldr	x27, [x22, #3576]
  403e18:	d63f0300 	blr	x24
  403e1c:	aa0003f3 	mov	x19, x0
  403e20:	eb15001f 	cmp	x0, x21
  403e24:	540002c0 	b.eq	403e7c <evalstring+0xd4>  // b.none
  403e28:	b94002a0 	ldr	w0, [x21]
  403e2c:	340005a0 	cbz	w0, 403ee0 <evalstring+0x138>
  403e30:	b9400360 	ldr	w0, [x27]
  403e34:	2a1903e1 	mov	w1, w25
  403e38:	35000540 	cbnz	w0, 403ee0 <evalstring+0x138>
  403e3c:	aa1303e0 	mov	x0, x19
  403e40:	97fffbe0 	bl	402dc0 <evaltree>
  403e44:	f9455ec1 	ldr	x1, [x22, #2744]
  403e48:	f100027f 	cmp	x19, #0x0
  403e4c:	1a800294 	csel	w20, w20, w0, eq  // eq = none
  403e50:	f0000162 	adrp	x2, 432000 <signal_names+0x100>
  403e54:	b9400020 	ldr	w0, [x1]
  403e58:	35000120 	cbnz	w0, 403e7c <evalstring+0xd4>
  403e5c:	f944a441 	ldr	x1, [x2, #2376]
  403e60:	aa1703e0 	mov	x0, x23
  403e64:	d63f0020 	blr	x1
  403e68:	52800000 	mov	w0, #0x0                   	// #0
  403e6c:	d63f0300 	blr	x24
  403e70:	aa0003f3 	mov	x19, x0
  403e74:	eb15001f 	cmp	x0, x21
  403e78:	54fffd81 	b.ne	403e28 <evalstring+0x80>  // b.any
  403e7c:	f0000162 	adrp	x2, 432000 <signal_names+0x100>
  403e80:	aa1703e0 	mov	x0, x23
  403e84:	f944a441 	ldr	x1, [x2, #2376]
  403e88:	d63f0020 	blr	x1
  403e8c:	f0000162 	adrp	x2, 432000 <signal_names+0x100>
  403e90:	f9436840 	ldr	x0, [x2, #1744]
  403e94:	d63f0000 	blr	x0
  403e98:	f0000162 	adrp	x2, 432000 <signal_names+0x100>
  403e9c:	aa1c03e0 	mov	x0, x28
  403ea0:	f946ec41 	ldr	x1, [x2, #3544]
  403ea4:	d63f0020 	blr	x1
  403ea8:	f943d2d6 	ldr	x22, [x22, #1952]
  403eac:	f9403fe0 	ldr	x0, [sp, #120]
  403eb0:	f94002c1 	ldr	x1, [x22]
  403eb4:	eb010000 	subs	x0, x0, x1
  403eb8:	d2800001 	mov	x1, #0x0                   	// #0
  403ebc:	54000161 	b.ne	403ee8 <evalstring+0x140>  // b.any
  403ec0:	2a1403e0 	mov	w0, w20
  403ec4:	a94153f3 	ldp	x19, x20, [sp, #16]
  403ec8:	a9425bf5 	ldp	x21, x22, [sp, #32]
  403ecc:	a94363f7 	ldp	x23, x24, [sp, #48]
  403ed0:	a9446bf9 	ldp	x25, x26, [sp, #64]
  403ed4:	a94573fb 	ldp	x27, x28, [sp, #80]
  403ed8:	a8c87bfd 	ldp	x29, x30, [sp], #128
  403edc:	d65f03c0 	ret
  403ee0:	2a1a03e1 	mov	w1, w26
  403ee4:	17ffffd6 	b	403e3c <evalstring+0x94>
  403ee8:	f0000162 	adrp	x2, 432000 <signal_names+0x100>
  403eec:	f944cc40 	ldr	x0, [x2, #2456]
  403ef0:	d63f0000 	blr	x0
  403ef4:	d503201f 	nop

0000000000403ef8 <evalbltin>:
  403ef8:	a9a37bfd 	stp	x29, x30, [sp, #-464]!
  403efc:	910003fd 	mov	x29, sp
  403f00:	a90153f3 	stp	x19, x20, [sp, #16]
  403f04:	f0000173 	adrp	x19, 432000 <signal_names+0x100>
  403f08:	f9459e64 	ldr	x4, [x19, #2872]
  403f0c:	a90683e2 	stp	x2, x0, [sp, #104]
  403f10:	f943d265 	ldr	x5, [x19, #1952]
  403f14:	290f0fe1 	stp	w1, w3, [sp, #120]
  403f18:	f945d673 	ldr	x19, [x19, #2984]
  403f1c:	f94000a6 	ldr	x6, [x5]
  403f20:	f900e7e6 	str	x6, [sp, #456]
  403f24:	d2800006 	mov	x6, #0x0                   	// #0
  403f28:	f9400080 	ldr	x0, [x4]
  403f2c:	a9025bf5 	stp	x21, x22, [sp, #32]
  403f30:	f9400264 	ldr	x4, [x19]
  403f34:	f0000173 	adrp	x19, 432000 <signal_names+0x100>
  403f38:	a90363f7 	stp	x23, x24, [sp, #48]
  403f3c:	f9436e63 	ldr	x3, [x19, #1752]
  403f40:	a9046bf9 	stp	x25, x26, [sp, #64]
  403f44:	f9002bfb 	str	x27, [sp, #80]
  403f48:	f90043e0 	str	x0, [sp, #128]
  403f4c:	910243e0 	add	x0, sp, #0x90
  403f50:	f90047e4 	str	x4, [sp, #136]
  403f54:	d63f0060 	blr	x3
  403f58:	2a0003f4 	mov	w20, w0
  403f5c:	35000440 	cbnz	w0, 403fe4 <evalbltin+0xec>
  403f60:	f0000173 	adrp	x19, 432000 <signal_names+0x100>
  403f64:	910243e0 	add	x0, sp, #0x90
  403f68:	f94037e1 	ldr	x1, [sp, #104]
  403f6c:	f945d662 	ldr	x2, [x19, #2984]
  403f70:	f945b663 	ldr	x3, [x19, #2920]
  403f74:	f9459e64 	ldr	x4, [x19, #2872]
  403f78:	f8408425 	ldr	x5, [x1], #8
  403f7c:	f9000040 	str	x0, [x2]
  403f80:	f9440262 	ldr	x2, [x19, #2048]
  403f84:	f9000061 	str	x1, [x3]
  403f88:	f9471660 	ldr	x0, [x19, #3624]
  403f8c:	f9000085 	str	x5, [x4]
  403f90:	f9403be1 	ldr	x1, [sp, #112]
  403f94:	f900005f 	str	xzr, [x2]
  403f98:	91042000 	add	x0, x0, #0x108
  403f9c:	eb00003f 	cmp	x1, x0
  403fa0:	54000680 	b.eq	404070 <evalbltin+0x178>  // b.none
  403fa4:	b9407be0 	ldr	w0, [sp, #120]
  403fa8:	f9400422 	ldr	x2, [x1, #8]
  403fac:	f94037e1 	ldr	x1, [sp, #104]
  403fb0:	d63f0040 	blr	x2
  403fb4:	2a0003f5 	mov	w21, w0
  403fb8:	f0000173 	adrp	x19, 432000 <signal_names+0x100>
  403fbc:	f9449e60 	ldr	x0, [x19, #2360]
  403fc0:	d63f0000 	blr	x0
  403fc4:	f9479676 	ldr	x22, [x19, #3880]
  403fc8:	f94002c0 	ldr	x0, [x22]
  403fcc:	b9402400 	ldr	w0, [x0, #36]
  403fd0:	350003c0 	cbnz	w0, 404048 <evalbltin+0x150>
  403fd4:	f0000173 	adrp	x19, 432000 <signal_names+0x100>
  403fd8:	2a0002b5 	orr	w21, w21, w0
  403fdc:	f9479273 	ldr	x19, [x19, #3872]
  403fe0:	b9000275 	str	w21, [x19]
  403fe4:	f0000173 	adrp	x19, 432000 <signal_names+0x100>
  403fe8:	f94043e4 	ldr	x4, [sp, #128]
  403fec:	f9441660 	ldr	x0, [x19, #2088]
  403ff0:	f945d661 	ldr	x1, [x19, #2984]
  403ff4:	f9459e63 	ldr	x3, [x19, #2872]
  403ff8:	b900241f 	str	wzr, [x0, #36]
  403ffc:	f94047e2 	ldr	x2, [sp, #136]
  404000:	f9000022 	str	x2, [x1]
  404004:	f943d273 	ldr	x19, [x19, #1952]
  404008:	f9000064 	str	x4, [x3]
  40400c:	f9400801 	ldr	x1, [x0, #16]
  404010:	f9000001 	str	x1, [x0]
  404014:	f940e7e0 	ldr	x0, [sp, #456]
  404018:	f9400261 	ldr	x1, [x19]
  40401c:	eb010000 	subs	x0, x0, x1
  404020:	d2800001 	mov	x1, #0x0                   	// #0
  404024:	540008c1 	b.ne	40413c <evalbltin+0x244>  // b.any
  404028:	2a1403e0 	mov	w0, w20
  40402c:	a94153f3 	ldp	x19, x20, [sp, #16]
  404030:	a9425bf5 	ldp	x21, x22, [sp, #32]
  404034:	a94363f7 	ldp	x23, x24, [sp, #48]
  404038:	a9446bf9 	ldp	x25, x26, [sp, #64]
  40403c:	f9402bfb 	ldr	x27, [sp, #80]
  404040:	a8dd7bfd 	ldp	x29, x30, [sp], #464
  404044:	d65f03c0 	ret
  404048:	f9459e73 	ldr	x19, [x19, #2872]
  40404c:	90000120 	adrp	x0, 428000 <__subtf3+0x758>
  404050:	913fe000 	add	x0, x0, #0xff8
  404054:	f9400261 	ldr	x1, [x19]
  404058:	d0000173 	adrp	x19, 432000 <signal_names+0x100>
  40405c:	f9459662 	ldr	x2, [x19, #2856]
  404060:	d63f0040 	blr	x2
  404064:	f94002c0 	ldr	x0, [x22]
  404068:	b9402400 	ldr	w0, [x0, #36]
  40406c:	17ffffda 	b	403fd4 <evalbltin+0xdc>
  404070:	b9407be0 	ldr	w0, [sp, #120]
  404074:	52800015 	mov	w21, #0x0                   	// #0
  404078:	7100041f 	cmp	w0, #0x1
  40407c:	54fff9ed 	b.le	403fb8 <evalbltin+0xc0>
  404080:	f94037e1 	ldr	x1, [sp, #104]
  404084:	7100081f 	cmp	w0, #0x2
  404088:	f940043b 	ldr	x27, [x1, #8]
  40408c:	54000420 	b.eq	404110 <evalbltin+0x218>  // b.none
  404090:	f9479e60 	ldr	x0, [x19, #3896]
  404094:	91004035 	add	x21, x1, #0x10
  404098:	f946ea78 	ldr	x24, [x19, #3536]
  40409c:	52800419 	mov	w25, #0x20                  	// #32
  4040a0:	f9433677 	ldr	x23, [x19, #1640]
  4040a4:	f945c27a 	ldr	x26, [x19, #2944]
  4040a8:	f9400001 	ldr	x1, [x0]
  4040ac:	d503201f 	nop
  4040b0:	aa1b03e0 	mov	x0, x27
  4040b4:	d63f0300 	blr	x24
  4040b8:	aa0003e1 	mov	x1, x0
  4040bc:	f84086bb 	ldr	x27, [x21], #8
  4040c0:	f94002e0 	ldr	x0, [x23]
  4040c4:	eb00003f 	cmp	x1, x0
  4040c8:	b400011b 	cbz	x27, 4040e8 <evalbltin+0x1f0>
  4040cc:	54000060 	b.eq	4040d8 <evalbltin+0x1e0>  // b.none
  4040d0:	38001439 	strb	w25, [x1], #1
  4040d4:	17fffff7 	b	4040b0 <evalbltin+0x1b8>
  4040d8:	d63f0340 	blr	x26
  4040dc:	aa0003e1 	mov	x1, x0
  4040e0:	38001439 	strb	w25, [x1], #1
  4040e4:	17fffff3 	b	4040b0 <evalbltin+0x1b8>
  4040e8:	54000200 	b.eq	404128 <evalbltin+0x230>  // b.none
  4040ec:	d0000173 	adrp	x19, 432000 <signal_names+0x100>
  4040f0:	3800143f 	strb	wzr, [x1], #1
  4040f4:	f9479e73 	ldr	x19, [x19, #3896]
  4040f8:	f9400260 	ldr	x0, [x19]
  4040fc:	d0000173 	adrp	x19, 432000 <signal_names+0x100>
  404100:	cb000020 	sub	x0, x1, x0
  404104:	f945e661 	ldr	x1, [x19, #3016]
  404108:	d63f0020 	blr	x1
  40410c:	aa0003fb 	mov	x27, x0
  404110:	b9407fe0 	ldr	w0, [sp, #124]
  404114:	121f0001 	and	w1, w0, #0x2
  404118:	aa1b03e0 	mov	x0, x27
  40411c:	97ffff23 	bl	403da8 <evalstring>
  404120:	2a0003f5 	mov	w21, w0
  404124:	17ffffa5 	b	403fb8 <evalbltin+0xc0>
  404128:	d0000173 	adrp	x19, 432000 <signal_names+0x100>
  40412c:	f945c260 	ldr	x0, [x19, #2944]
  404130:	d63f0000 	blr	x0
  404134:	aa0003e1 	mov	x1, x0
  404138:	17ffffed 	b	4040ec <evalbltin+0x1f4>
  40413c:	d0000173 	adrp	x19, 432000 <signal_names+0x100>
  404140:	f944ce60 	ldr	x0, [x19, #2456]
  404144:	d63f0000 	blr	x0

0000000000404148 <evalcommand>:
  404148:	a9b07bfd 	stp	x29, x30, [sp, #-256]!
  40414c:	910003fd 	mov	x29, sp
  404150:	a9025bf5 	stp	x21, x22, [sp, #32]
  404154:	d0000176 	adrp	x22, 432000 <signal_names+0x100>
  404158:	910323f5 	add	x21, sp, #0xc8
  40415c:	a90363f7 	stp	x23, x24, [sp, #48]
  404160:	aa0003f8 	mov	x24, x0
  404164:	f0000160 	adrp	x0, 433000 <__dso_handle>
  404168:	f9442ac7 	ldr	x7, [x22, #2128]
  40416c:	b900bbe1 	str	w1, [sp, #184]
  404170:	f943d2c8 	ldr	x8, [x22, #1952]
  404174:	a90153f3 	stp	x19, x20, [sp, #16]
  404178:	b9433402 	ldr	w2, [x0, #820]
  40417c:	f947e2c6 	ldr	x6, [x22, #4032]
  404180:	f9400104 	ldr	x4, [x8]
  404184:	f9007fe4 	str	x4, [sp, #248]
  404188:	d2800004 	mov	x4, #0x0                   	// #0
  40418c:	b9400701 	ldr	w1, [x24, #4]
  404190:	7100005f 	cmp	w2, #0x0
  404194:	f946a2c3 	ldr	x3, [x22, #3392]
  404198:	a9046bf9 	stp	x25, x26, [sp, #64]
  40419c:	52800044 	mov	w4, #0x2                   	// #2
  4041a0:	f944a2c5 	ldr	x5, [x22, #2368]
  4041a4:	a90573fb 	stp	x27, x28, [sp, #80]
  4041a8:	910363f9 	add	x25, sp, #0xd8
  4041ac:	f90037e0 	str	x0, [sp, #104]
  4041b0:	51000440 	sub	w0, w2, #0x1
  4041b4:	4b000020 	sub	w0, w1, w0
  4041b8:	d0000162 	adrp	x2, 432000 <signal_names+0x100>
  4041bc:	91060042 	add	x2, x2, #0x180
  4041c0:	b90000e1 	str	w1, [x7]
  4041c4:	a90cd7ff 	stp	xzr, x21, [sp, #200]
  4041c8:	1a811000 	csel	w0, w0, w1, ne  // ne = any
  4041cc:	a90de7ff 	stp	xzr, x25, [sp, #216]
  4041d0:	b900ebe4 	str	w4, [sp, #232]
  4041d4:	f9007be2 	str	x2, [sp, #240]
  4041d8:	f9459ad7 	ldr	x23, [x22, #2864]
  4041dc:	b90000c0 	str	w0, [x6]
  4041e0:	f9400b13 	ldr	x19, [x24, #16]
  4041e4:	b90000bf 	str	wzr, [x5]
  4041e8:	f9400060 	ldr	x0, [x3]
  4041ec:	f9004be0 	str	x0, [sp, #144]
  4041f0:	b4001853 	cbz	x19, 4044f8 <evalcommand+0x3b0>
  4041f4:	aa1303e0 	mov	x0, x19
  4041f8:	aa1503e1 	mov	x1, x21
  4041fc:	52800062 	mov	w2, #0x3                   	// #3
  404200:	d63f02e0 	blr	x23
  404204:	f94067f4 	ldr	x20, [sp, #200]
  404208:	f9400673 	ldr	x19, [x19, #8]
  40420c:	b4ffff34 	cbz	x20, 4041f0 <evalcommand+0xa8>
  404210:	f94716d7 	ldr	x23, [x22, #3624]
  404214:	aa1303fc 	mov	x28, x19
  404218:	5280001a 	mov	w26, #0x0                   	// #0
  40421c:	d2800013 	mov	x19, #0x0                   	// #0
  404220:	910482e0 	add	x0, x23, #0x120
  404224:	f90047e0 	str	x0, [sp, #136]
  404228:	12800000 	mov	w0, #0xffffffff            	// #-1
  40422c:	b9007fe0 	str	w0, [sp, #124]
  404230:	9103a3e0 	add	x0, sp, #0xe8
  404234:	f9003be0 	str	x0, [sp, #112]
  404238:	f9400680 	ldr	x0, [x20, #8]
  40423c:	5280001b 	mov	w27, #0x0                   	// #0
  404240:	b9007bff 	str	wzr, [sp, #120]
  404244:	b90083ff 	str	wzr, [sp, #128]
  404248:	f9446ec3 	ldr	x3, [x22, #2264]
  40424c:	d0000164 	adrp	x4, 432000 <signal_names+0x100>
  404250:	b94083e1 	ldr	w1, [sp, #128]
  404254:	1100077b 	add	w27, w27, #0x1
  404258:	f9442484 	ldr	x4, [x4, #2120]
  40425c:	321c0022 	orr	w2, w1, #0x10
  404260:	f9403be1 	ldr	x1, [sp, #112]
  404264:	f9403863 	ldr	x3, [x3, #112]
  404268:	91001463 	add	x3, x3, #0x5
  40426c:	d63f0080 	blr	x4
  404270:	b940ebe0 	ldr	w0, [sp, #232]
  404274:	7100081f 	cmp	w0, #0x2
  404278:	54000221 	b.ne	4042bc <evalcommand+0x174>  // b.any
  40427c:	f9407be1 	ldr	x1, [sp, #240]
  404280:	b9407fe0 	ldr	w0, [sp, #124]
  404284:	3100041f 	cmn	w0, #0x1
  404288:	b9401020 	ldr	w0, [x1, #16]
  40428c:	121e001a 	and	w26, w0, #0x4
  404290:	54000081 	b.ne	4042a0 <evalcommand+0x158>  // b.any
  404294:	12000000 	and	w0, w0, #0x1
  404298:	b9007fe0 	str	w0, [sp, #124]
  40429c:	5200001b 	eor	w27, w0, #0x1
  4042a0:	f94047e0 	ldr	x0, [sp, #136]
  4042a4:	eb00003f 	cmp	x1, x0
  4042a8:	910302e0 	add	x0, x23, #0xc0
  4042ac:	1a9f17e2 	cset	w2, eq  // eq = none
  4042b0:	b9007be2 	str	w2, [sp, #120]
  4042b4:	eb00003f 	cmp	x1, x0
  4042b8:	54002a00 	b.eq	4047f8 <evalcommand+0x6b0>  // b.none
  4042bc:	b400013c 	cbz	x28, 4042e0 <evalcommand+0x198>
  4042c0:	f9459ad7 	ldr	x23, [x22, #2864]
  4042c4:	3500245a 	cbnz	w26, 40474c <evalcommand+0x604>
  4042c8:	aa1c03e0 	mov	x0, x28
  4042cc:	aa1503e1 	mov	x1, x21
  4042d0:	52800062 	mov	w2, #0x3                   	// #3
  4042d4:	d63f02e0 	blr	x23
  4042d8:	f940079c 	ldr	x28, [x28, #8]
  4042dc:	b5ffff7c 	cbnz	x28, 4042c8 <evalcommand+0x180>
  4042e0:	f94067e0 	ldr	x0, [sp, #200]
  4042e4:	52800017 	mov	w23, #0x0                   	// #0
  4042e8:	d2800215 	mov	x21, #0x10                  	// #16
  4042ec:	5280001a 	mov	w26, #0x0                   	// #0
  4042f0:	b4000220 	cbz	x0, 404334 <evalcommand+0x1ec>
  4042f4:	d503201f 	nop
  4042f8:	f9400000 	ldr	x0, [x0]
  4042fc:	2a1703e1 	mov	w1, w23
  404300:	110006f7 	add	w23, w23, #0x1
  404304:	b5ffffa0 	cbnz	x0, 4042f8 <evalcommand+0x1b0>
  404308:	11000c21 	add	w1, w1, #0x3
  40430c:	710006ff 	cmp	w23, #0x1
  404310:	1a9fd7e0 	cset	w0, gt
  404314:	5280001a 	mov	w26, #0x0                   	// #0
  404318:	937d7c35 	sbfiz	x21, x1, #3, #32
  40431c:	b9407be1 	ldr	w1, [sp, #120]
  404320:	6a01001f 	tst	w0, w1
  404324:	54000080 	b.eq	404334 <evalcommand+0x1ec>  // b.none
  404328:	52800020 	mov	w0, #0x1                   	// #1
  40432c:	2a0003fa 	mov	w26, w0
  404330:	b9007be0 	str	w0, [sp, #120]
  404334:	d0000164 	adrp	x4, 432000 <signal_names+0x100>
  404338:	2a1b03e0 	mov	w0, w27
  40433c:	f947e481 	ldr	x1, [x4, #4040]
  404340:	d63f0020 	blr	x1
  404344:	aa0003e1 	mov	x1, x0
  404348:	d0000164 	adrp	x4, 432000 <signal_names+0x100>
  40434c:	f9004fe1 	str	x1, [sp, #152]
  404350:	aa1503e0 	mov	x0, x21
  404354:	f945e481 	ldr	x1, [x4, #3016]
  404358:	d63f0020 	blr	x1
  40435c:	f9005be0 	str	x0, [sp, #176]
  404360:	f94067e1 	ldr	x1, [sp, #200]
  404364:	91002000 	add	x0, x0, #0x8
  404368:	f90057e0 	str	x0, [sp, #168]
  40436c:	b40000a1 	cbz	x1, 404380 <evalcommand+0x238>
  404370:	f9400422 	ldr	x2, [x1, #8]
  404374:	f9400021 	ldr	x1, [x1]
  404378:	f8008402 	str	x2, [x0], #8
  40437c:	b5ffffa1 	cbnz	x1, 404370 <evalcommand+0x228>
  404380:	f944b6c1 	ldr	x1, [x22, #2408]
  404384:	f900001f 	str	xzr, [x0]
  404388:	f90047ff 	str	xzr, [sp, #136]
  40438c:	39400c21 	ldrb	w1, [x1, #3]
  404390:	35000a41 	cbnz	w1, 4044d8 <evalcommand+0x390>
  404394:	f94396c1 	ldr	x1, [x22, #1832]
  404398:	52800042 	mov	w2, #0x2                   	// #2
  40439c:	f9400f00 	ldr	x0, [x24, #24]
  4043a0:	b9002022 	str	w2, [x1, #32]
  4043a4:	97fffa47 	bl	402cc0 <expredir>
  4043a8:	d0000164 	adrp	x4, 432000 <signal_names+0x100>
  4043ac:	f9400f00 	ldr	x0, [x24, #24]
  4043b0:	f9437481 	ldr	x1, [x4, #1768]
  4043b4:	d63f0020 	blr	x1
  4043b8:	aa0003e1 	mov	x1, x0
  4043bc:	d0000164 	adrp	x4, 432000 <signal_names+0x100>
  4043c0:	f90053e1 	str	x1, [sp, #160]
  4043c4:	f9400f00 	ldr	x0, [x24, #24]
  4043c8:	52800061 	mov	w1, #0x3                   	// #3
  4043cc:	f946e082 	ldr	x2, [x4, #3520]
  4043d0:	d63f0040 	blr	x2
  4043d4:	2a0003f5 	mov	w21, w0
  4043d8:	350015a0 	cbnz	w0, 40468c <evalcommand+0x544>
  4043dc:	f940071c 	ldr	x28, [x24, #8]
  4043e0:	b400027c 	cbz	x28, 40442c <evalcommand+0x2e4>
  4043e4:	350009db 	cbnz	w27, 40451c <evalcommand+0x3d4>
  4043e8:	f9459ac0 	ldr	x0, [x22, #2864]
  4043ec:	f90037e0 	str	x0, [sp, #104]
  4043f0:	f94786c0 	ldr	x0, [x22, #3848]
  4043f4:	f9003be0 	str	x0, [sp, #112]
  4043f8:	f94037e3 	ldr	x3, [sp, #104]
  4043fc:	aa1c03e0 	mov	x0, x28
  404400:	f94073fb 	ldr	x27, [sp, #224]
  404404:	aa1903e1 	mov	x1, x25
  404408:	52800082 	mov	w2, #0x4                   	// #4
  40440c:	d63f0060 	blr	x3
  404410:	f9403be2 	ldr	x2, [sp, #112]
  404414:	2a1a03e1 	mov	w1, w26
  404418:	f9400360 	ldr	x0, [x27]
  40441c:	f9400400 	ldr	x0, [x0, #8]
  404420:	d63f0040 	blr	x2
  404424:	f940079c 	ldr	x28, [x28, #8]
  404428:	b5fffe9c 	cbnz	x28, 4043f8 <evalcommand+0x2b0>
  40442c:	f944b6c0 	ldr	x0, [x22, #2408]
  404430:	39401c00 	ldrb	w0, [x0, #7]
  404434:	35000980 	cbnz	w0, 404564 <evalcommand+0x41c>
  404438:	b940ebe0 	ldr	w0, [sp, #232]
  40443c:	7100081f 	cmp	w0, #0x2
  404440:	54000f80 	b.eq	404630 <evalcommand+0x4e8>  // b.none
  404444:	b5000093 	cbnz	x19, 404454 <evalcommand+0x30c>
  404448:	f9446ec0 	ldr	x0, [x22, #2264]
  40444c:	f9403813 	ldr	x19, [x0, #112]
  404450:	91001673 	add	x19, x19, #0x5
  404454:	f9405be0 	ldr	x0, [sp, #176]
  404458:	d0000164 	adrp	x4, 432000 <signal_names+0x100>
  40445c:	b94083e1 	ldr	w1, [sp, #128]
  404460:	aa1303e3 	mov	x3, x19
  404464:	f9442484 	ldr	x4, [x4, #2120]
  404468:	32000022 	orr	w2, w1, #0x1
  40446c:	f9400400 	ldr	x0, [x0, #8]
  404470:	9103a3e1 	add	x1, sp, #0xe8
  404474:	d63f0080 	blr	x4
  404478:	b940ebe0 	ldr	w0, [sp, #232]
  40447c:	7100041f 	cmp	w0, #0x1
  404480:	54001960 	b.eq	4047ac <evalcommand+0x664>  // b.none
  404484:	7100081f 	cmp	w0, #0x2
  404488:	54002120 	b.eq	4048ac <evalcommand+0x764>  // b.none
  40448c:	3100041f 	cmn	w0, #0x1
  404490:	54000fc0 	b.eq	404688 <evalcommand+0x540>  // b.none
  404494:	f9405fe0 	ldr	x0, [sp, #184]
  404498:	36000080 	tbz	w0, #0, 4044a8 <evalcommand+0x360>
  40449c:	f943e6c0 	ldr	x0, [x22, #1992]
  4044a0:	b9400000 	ldr	w0, [x0]
  4044a4:	340023a0 	cbz	w0, 404918 <evalcommand+0x7d0>
  4044a8:	f945a2c1 	ldr	x1, [x22, #2880]
  4044ac:	d0000164 	adrp	x4, 432000 <signal_names+0x100>
  4044b0:	b9400020 	ldr	w0, [x1]
  4044b4:	11000400 	add	w0, w0, #0x1
  4044b8:	b9000020 	str	w0, [x1]
  4044bc:	f9451c84 	ldr	x4, [x4, #2616]
  4044c0:	aa1303e2 	mov	x2, x19
  4044c4:	b940f3e3 	ldr	w3, [sp, #240]
  4044c8:	aa1803e0 	mov	x0, x24
  4044cc:	f94057e1 	ldr	x1, [sp, #168]
  4044d0:	d63f0080 	blr	x4
  4044d4:	14000060 	b	404654 <evalcommand+0x50c>
  4044d8:	f94037e1 	ldr	x1, [sp, #104]
  4044dc:	b9433421 	ldr	w1, [x1, #820]
  4044e0:	7100003f 	cmp	w1, #0x0
  4044e4:	7a400ae4 	ccmp	w23, #0x0, #0x4, eq  // eq = none
  4044e8:	54fff560 	b.eq	404394 <evalcommand+0x24c>  // b.none
  4044ec:	f85f8000 	ldur	x0, [x0, #-8]
  4044f0:	f90047e0 	str	x0, [sp, #136]
  4044f4:	17ffffa8 	b	404394 <evalcommand+0x24c>
  4044f8:	12800000 	mov	w0, #0xffffffff            	// #-1
  4044fc:	d2800014 	mov	x20, #0x0                   	// #0
  404500:	d2800215 	mov	x21, #0x10                  	// #16
  404504:	5280001b 	mov	w27, #0x0                   	// #0
  404508:	5280001a 	mov	w26, #0x0                   	// #0
  40450c:	52800017 	mov	w23, #0x0                   	// #0
  404510:	290f03ff 	stp	wzr, w0, [sp, #120]
  404514:	b90083ff 	str	wzr, [sp, #128]
  404518:	17ffff87 	b	404334 <evalcommand+0x1ec>
  40451c:	f9459adb 	ldr	x27, [x22, #2864]
  404520:	f9447ec0 	ldr	x0, [x22, #2296]
  404524:	f90037e0 	str	x0, [sp, #104]
  404528:	f94073fa 	ldr	x26, [sp, #224]
  40452c:	aa1c03e0 	mov	x0, x28
  404530:	aa1903e1 	mov	x1, x25
  404534:	52800082 	mov	w2, #0x4                   	// #4
  404538:	d63f0360 	blr	x27
  40453c:	f9400340 	ldr	x0, [x26]
  404540:	52800021 	mov	w1, #0x1                   	// #1
  404544:	f94037e2 	ldr	x2, [sp, #104]
  404548:	f9400400 	ldr	x0, [x0, #8]
  40454c:	d63f0040 	blr	x2
  404550:	f940079c 	ldr	x28, [x28, #8]
  404554:	b5fffebc 	cbnz	x28, 404528 <evalcommand+0x3e0>
  404558:	f944b6c0 	ldr	x0, [x22, #2408]
  40455c:	39401c00 	ldrb	w0, [x0, #7]
  404560:	34fff6c0 	cbz	w0, 404438 <evalcommand+0x2f0>
  404564:	f9446ec0 	ldr	x0, [x22, #2264]
  404568:	d0000164 	adrp	x4, 432000 <signal_names+0x100>
  40456c:	f946b881 	ldr	x1, [x4, #3440]
  404570:	f9406800 	ldr	x0, [x0, #208]
  404574:	91001000 	add	x0, x0, #0x4
  404578:	d63f0020 	blr	x1
  40457c:	d0000164 	adrp	x4, 432000 <signal_names+0x100>
  404580:	f94396d9 	ldr	x25, [x22, #1832]
  404584:	f9443c82 	ldr	x2, [x4, #2168]
  404588:	aa1903e1 	mov	x1, x25
  40458c:	d63f0040 	blr	x2
  404590:	f9406ffb 	ldr	x27, [sp, #216]
  404594:	b40001fb 	cbz	x27, 4045d0 <evalcommand+0x488>
  404598:	9000013a 	adrp	x26, 428000 <__subtf3+0x758>
  40459c:	913cc35c 	add	x28, x26, #0xf30
  4045a0:	5280003a 	mov	w26, #0x1                   	// #1
  4045a4:	d503201f 	nop
  4045a8:	d0000164 	adrp	x4, 432000 <signal_names+0x100>
  4045ac:	4b150341 	sub	w1, w26, w21
  4045b0:	f9400762 	ldr	x2, [x27, #8]
  4045b4:	aa1903e0 	mov	x0, x25
  4045b8:	f9462483 	ldr	x3, [x4, #3144]
  4045bc:	8b21c381 	add	x1, x28, w1, sxtw
  4045c0:	52800035 	mov	w21, #0x1                   	// #1
  4045c4:	d63f0060 	blr	x3
  4045c8:	f940037b 	ldr	x27, [x27]
  4045cc:	b5fffefb 	cbnz	x27, 4045a8 <evalcommand+0x460>
  4045d0:	9000013a 	adrp	x26, 428000 <__subtf3+0x758>
  4045d4:	52800039 	mov	w25, #0x1                   	// #1
  4045d8:	f94396db 	ldr	x27, [x22, #1832]
  4045dc:	913cc35a 	add	x26, x26, #0xf30
  4045e0:	b4000194 	cbz	x20, 404610 <evalcommand+0x4c8>
  4045e4:	d503201f 	nop
  4045e8:	d0000164 	adrp	x4, 432000 <signal_names+0x100>
  4045ec:	4b150321 	sub	w1, w25, w21
  4045f0:	f9400682 	ldr	x2, [x20, #8]
  4045f4:	aa1b03e0 	mov	x0, x27
  4045f8:	f9462483 	ldr	x3, [x4, #3144]
  4045fc:	8b21c341 	add	x1, x26, w1, sxtw
  404600:	52800035 	mov	w21, #0x1                   	// #1
  404604:	d63f0060 	blr	x3
  404608:	f9400294 	ldr	x20, [x20]
  40460c:	b5fffef4 	cbnz	x20, 4045e8 <evalcommand+0x4a0>
  404610:	d0000164 	adrp	x4, 432000 <signal_names+0x100>
  404614:	52800140 	mov	w0, #0xa                   	// #10
  404618:	f94396c1 	ldr	x1, [x22, #1832]
  40461c:	f9456c82 	ldr	x2, [x4, #2776]
  404620:	d63f0040 	blr	x2
  404624:	b940ebe0 	ldr	w0, [sp, #232]
  404628:	7100081f 	cmp	w0, #0x2
  40462c:	54fff0c1 	b.ne	404444 <evalcommand+0x2fc>  // b.any
  404630:	f9407be0 	ldr	x0, [sp, #240]
  404634:	b9401001 	ldr	w1, [x0, #16]
  404638:	360ff061 	tbz	w1, #1, 404444 <evalcommand+0x2fc>
  40463c:	b940bbe3 	ldr	w3, [sp, #184]
  404640:	2a1703e1 	mov	w1, w23
  404644:	f94057e2 	ldr	x2, [sp, #168]
  404648:	97fffe2c 	bl	403ef8 <evalbltin>
  40464c:	35000c80 	cbnz	w0, 4047dc <evalcommand+0x694>
  404650:	d2800000 	mov	x0, #0x0                   	// #0
  404654:	d0000164 	adrp	x4, 432000 <signal_names+0x100>
  404658:	f9453481 	ldr	x1, [x4, #2664]
  40465c:	d63f0020 	blr	x1
  404660:	2a0003f5 	mov	w21, w0
  404664:	d0000164 	adrp	x4, 432000 <signal_names+0x100>
  404668:	f94346c1 	ldr	x1, [x22, #1672]
  40466c:	f945a2c0 	ldr	x0, [x22, #2880]
  404670:	b9400021 	ldr	w1, [x1]
  404674:	b900001f 	str	wzr, [x0]
  404678:	34000161 	cbz	w1, 4046a4 <evalcommand+0x55c>
  40467c:	f943d480 	ldr	x0, [x4, #1960]
  404680:	d63f0000 	blr	x0
  404684:	14000008 	b	4046a4 <evalcommand+0x55c>
  404688:	52800ff5 	mov	w21, #0x7f                  	// #127
  40468c:	f94792c0 	ldr	x0, [x22, #3872]
  404690:	d0000164 	adrp	x4, 432000 <signal_names+0x100>
  404694:	b9407fe1 	ldr	w1, [sp, #124]
  404698:	b9000015 	str	w21, [x0]
  40469c:	7100043f 	cmp	w1, #0x1
  4046a0:	54001480 	b.eq	404930 <evalcommand+0x7e8>  // b.none
  4046a4:	f9400f00 	ldr	x0, [x24, #24]
  4046a8:	b40000a0 	cbz	x0, 4046bc <evalcommand+0x574>
  4046ac:	d0000164 	adrp	x4, 432000 <signal_names+0x100>
  4046b0:	b9407be0 	ldr	w0, [sp, #120]
  4046b4:	f946d081 	ldr	x1, [x4, #3488]
  4046b8:	d63f0020 	blr	x1
  4046bc:	d0000164 	adrp	x4, 432000 <signal_names+0x100>
  4046c0:	f94053e0 	ldr	x0, [sp, #160]
  4046c4:	f9449881 	ldr	x1, [x4, #2352]
  4046c8:	d63f0020 	blr	x1
  4046cc:	d0000164 	adrp	x4, 432000 <signal_names+0x100>
  4046d0:	f9404be0 	ldr	x0, [sp, #144]
  4046d4:	f9461881 	ldr	x1, [x4, #3120]
  4046d8:	d63f0020 	blr	x1
  4046dc:	d0000164 	adrp	x4, 432000 <signal_names+0x100>
  4046e0:	f9404fe0 	ldr	x0, [sp, #152]
  4046e4:	f9464c81 	ldr	x1, [x4, #3224]
  4046e8:	d63f0020 	blr	x1
  4046ec:	f94047e0 	ldr	x0, [sp, #136]
  4046f0:	b4000100 	cbz	x0, 404710 <evalcommand+0x5c8>
  4046f4:	d0000164 	adrp	x4, 432000 <signal_names+0x100>
  4046f8:	aa0003e1 	mov	x1, x0
  4046fc:	52800002 	mov	w2, #0x0                   	// #0
  404700:	b0000120 	adrp	x0, 429000 <prec+0x170>
  404704:	f946e483 	ldr	x3, [x4, #3528]
  404708:	91002000 	add	x0, x0, #0x8
  40470c:	d63f0060 	blr	x3
  404710:	f943d2d6 	ldr	x22, [x22, #1952]
  404714:	d0000164 	adrp	x4, 432000 <signal_names+0x100>
  404718:	f9407fe0 	ldr	x0, [sp, #248]
  40471c:	f94002c1 	ldr	x1, [x22]
  404720:	eb010000 	subs	x0, x0, x1
  404724:	d2800001 	mov	x1, #0x0                   	// #0
  404728:	540010a1 	b.ne	40493c <evalcommand+0x7f4>  // b.any
  40472c:	2a1503e0 	mov	w0, w21
  404730:	a94153f3 	ldp	x19, x20, [sp, #16]
  404734:	a9425bf5 	ldp	x21, x22, [sp, #32]
  404738:	a94363f7 	ldp	x23, x24, [sp, #48]
  40473c:	a9446bf9 	ldp	x25, x26, [sp, #64]
  404740:	a94573fb 	ldp	x27, x28, [sp, #80]
  404744:	a8d07bfd 	ldp	x29, x30, [sp], #256
  404748:	d65f03c0 	ret
  40474c:	f94622d7 	ldr	x23, [x22, #3136]
  404750:	f9459ada 	ldr	x26, [x22, #2864]
  404754:	d503201f 	nop
  404758:	f9400b80 	ldr	x0, [x28, #16]
  40475c:	d63f02e0 	blr	x23
  404760:	34000140 	cbz	w0, 404788 <evalcommand+0x640>
  404764:	aa1c03e0 	mov	x0, x28
  404768:	aa1503e1 	mov	x1, x21
  40476c:	52800082 	mov	w2, #0x4                   	// #4
  404770:	d63f0340 	blr	x26
  404774:	f940079c 	ldr	x28, [x28, #8]
  404778:	b4ffdb5c 	cbz	x28, 4042e0 <evalcommand+0x198>
  40477c:	f9400b80 	ldr	x0, [x28, #16]
  404780:	d63f02e0 	blr	x23
  404784:	35ffff00 	cbnz	w0, 404764 <evalcommand+0x61c>
  404788:	d0000164 	adrp	x4, 432000 <signal_names+0x100>
  40478c:	aa1c03e0 	mov	x0, x28
  404790:	aa1503e1 	mov	x1, x21
  404794:	52800062 	mov	w2, #0x3                   	// #3
  404798:	f9459883 	ldr	x3, [x4, #2864]
  40479c:	d63f0060 	blr	x3
  4047a0:	f940079c 	ldr	x28, [x28, #8]
  4047a4:	b5fffdbc 	cbnz	x28, 404758 <evalcommand+0x610>
  4047a8:	17fffece 	b	4042e0 <evalcommand+0x198>
  4047ac:	b940bbe3 	ldr	w3, [sp, #184]
  4047b0:	2a1703e1 	mov	w1, w23
  4047b4:	f94057e2 	ldr	x2, [sp, #168]
  4047b8:	f9407be0 	ldr	x0, [sp, #240]
  4047bc:	97fffaef 	bl	403378 <evalfun>
  4047c0:	34fff480 	cbz	w0, 404650 <evalcommand+0x508>
  4047c4:	f945d6d6 	ldr	x22, [x22, #2984]
  4047c8:	d0000164 	adrp	x4, 432000 <signal_names+0x100>
  4047cc:	52800021 	mov	w1, #0x1                   	// #1
  4047d0:	f9433882 	ldr	x2, [x4, #1648]
  4047d4:	f94002c0 	ldr	x0, [x22]
  4047d8:	d63f0040 	blr	x2
  4047dc:	f946b2c0 	ldr	x0, [x22, #3424]
  4047e0:	b9400000 	ldr	w0, [x0]
  4047e4:	7100041f 	cmp	w0, #0x1
  4047e8:	b9407fe0 	ldr	w0, [sp, #124]
  4047ec:	7a410804 	ccmp	w0, #0x1, #0x4, eq  // eq = none
  4047f0:	54fff301 	b.ne	404650 <evalcommand+0x508>  // b.any
  4047f4:	17fffff4 	b	4047c4 <evalcommand+0x67c>
  4047f8:	f94067e3 	ldr	x3, [sp, #200]
  4047fc:	f9459ac0 	ldr	x0, [x22, #2864]
  404800:	f9004fe0 	str	x0, [sp, #152]
  404804:	f9400063 	ldr	x3, [x3]
  404808:	b50001c3 	cbnz	x3, 404840 <evalcommand+0x6f8>
  40480c:	f9406be0 	ldr	x0, [sp, #208]
  404810:	f90043e0 	str	x0, [sp, #128]
  404814:	d503201f 	nop
  404818:	b40004fc 	cbz	x28, 4048b4 <evalcommand+0x76c>
  40481c:	f9404fe3 	ldr	x3, [sp, #152]
  404820:	aa1c03e0 	mov	x0, x28
  404824:	aa1503e1 	mov	x1, x21
  404828:	52800062 	mov	w2, #0x3                   	// #3
  40482c:	d63f0060 	blr	x3
  404830:	f94043e0 	ldr	x0, [sp, #128]
  404834:	f940079c 	ldr	x28, [x28, #8]
  404838:	f9400003 	ldr	x3, [x0]
  40483c:	b4fffee3 	cbz	x3, 404818 <evalcommand+0x6d0>
  404840:	f9400460 	ldr	x0, [x3, #8]
  404844:	39400001 	ldrb	w1, [x0]
  404848:	7100b43f 	cmp	w1, #0x2d
  40484c:	54000281 	b.ne	40489c <evalcommand+0x754>  // b.any
  404850:	39400401 	ldrb	w1, [x0, #1]
  404854:	34000241 	cbz	w1, 40489c <evalcommand+0x754>
  404858:	7100b43f 	cmp	w1, #0x2d
  40485c:	54000360 	b.eq	4048c8 <evalcommand+0x780>  // b.none
  404860:	f946f2c2 	ldr	x2, [x22, #3552]
  404864:	91000800 	add	x0, x0, #0x2
  404868:	14000004 	b	404878 <evalcommand+0x730>
  40486c:	38401401 	ldrb	w1, [x0], #1
  404870:	91009053 	add	x19, x2, #0x24
  404874:	34fffc81 	cbz	w1, 404804 <evalcommand+0x6bc>
  404878:	7101c03f 	cmp	w1, #0x70
  40487c:	54ffff80 	b.eq	40486c <evalcommand+0x724>  // b.none
  404880:	b90083ff 	str	wzr, [sp, #128]
  404884:	17fffe8e 	b	4042bc <evalcommand+0x174>
  404888:	f94000c0 	ldr	x0, [x6]
  40488c:	b40001a0 	cbz	x0, 4048c0 <evalcommand+0x778>
  404890:	f9400060 	ldr	x0, [x3]
  404894:	aa0003e3 	mov	x3, x0
  404898:	f9400400 	ldr	x0, [x0, #8]
  40489c:	52800081 	mov	w1, #0x4                   	// #4
  4048a0:	b90083e1 	str	w1, [sp, #128]
  4048a4:	f90067e3 	str	x3, [sp, #200]
  4048a8:	17fffe68 	b	404248 <evalcommand+0x100>
  4048ac:	f9407be0 	ldr	x0, [sp, #240]
  4048b0:	17ffff63 	b	40463c <evalcommand+0x4f4>
  4048b4:	f94043e0 	ldr	x0, [sp, #128]
  4048b8:	f9400003 	ldr	x3, [x0]
  4048bc:	b5fffc23 	cbnz	x3, 404840 <evalcommand+0x6f8>
  4048c0:	b90083ff 	str	wzr, [sp, #128]
  4048c4:	17fffe87 	b	4042e0 <evalcommand+0x198>
  4048c8:	39400800 	ldrb	w0, [x0, #2]
  4048cc:	35fffda0 	cbnz	w0, 404880 <evalcommand+0x738>
  4048d0:	f9400060 	ldr	x0, [x3]
  4048d4:	b5fffe00 	cbnz	x0, 404894 <evalcommand+0x74c>
  4048d8:	f9459ac7 	ldr	x7, [x22, #2864]
  4048dc:	f9406be6 	ldr	x6, [sp, #208]
  4048e0:	b4fffd5c 	cbz	x28, 404888 <evalcommand+0x740>
  4048e4:	aa1c03e0 	mov	x0, x28
  4048e8:	aa1503e1 	mov	x1, x21
  4048ec:	52800062 	mov	w2, #0x3                   	// #3
  4048f0:	f90043e7 	str	x7, [sp, #128]
  4048f4:	a9099be3 	stp	x3, x6, [sp, #152]
  4048f8:	d63f00e0 	blr	x7
  4048fc:	a9499be3 	ldp	x3, x6, [sp, #152]
  404900:	f940079c 	ldr	x28, [x28, #8]
  404904:	f94043e7 	ldr	x7, [sp, #128]
  404908:	f94000c0 	ldr	x0, [x6]
  40490c:	b4fffea0 	cbz	x0, 4048e0 <evalcommand+0x798>
  404910:	f9400060 	ldr	x0, [x3]
  404914:	17ffffe0 	b	404894 <evalcommand+0x74c>
  404918:	d0000164 	adrp	x4, 432000 <signal_names+0x100>
  40491c:	b940f3e2 	ldr	w2, [sp, #240]
  404920:	f94057e0 	ldr	x0, [sp, #168]
  404924:	aa1303e1 	mov	x1, x19
  404928:	f9446883 	ldr	x3, [x4, #2256]
  40492c:	d63f0060 	blr	x3
  404930:	aa0103e0 	mov	x0, x1
  404934:	f9454c81 	ldr	x1, [x4, #2712]
  404938:	d63f0020 	blr	x1
  40493c:	f944cc80 	ldr	x0, [x4, #2456]
  404940:	d63f0000 	blr	x0
  404944:	d503201f 	nop

0000000000404948 <evalbackcmd>:
  404948:	a9bc7bfd 	stp	x29, x30, [sp, #-64]!
  40494c:	910003fd 	mov	x29, sp
  404950:	a90153f3 	stp	x19, x20, [sp, #16]
  404954:	d0000174 	adrp	x20, 432000 <signal_names+0x100>
  404958:	aa0103f3 	mov	x19, x1
  40495c:	f943d282 	ldr	x2, [x20, #1952]
  404960:	a9025bf5 	stp	x21, x22, [sp, #32]
  404964:	aa0003f5 	mov	x21, x0
  404968:	f9400040 	ldr	x0, [x2]
  40496c:	f9001fe0 	str	x0, [sp, #56]
  404970:	d2800000 	mov	x0, #0x0                   	// #0
  404974:	12800001 	mov	w1, #0xffffffff            	// #-1
  404978:	b9000261 	str	w1, [x19]
  40497c:	f900067f 	str	xzr, [x19, #8]
  404980:	b900127f 	str	wzr, [x19, #16]
  404984:	f9000e7f 	str	xzr, [x19, #24]
  404988:	b4000315 	cbz	x21, 4049e8 <evalbackcmd+0xa0>
  40498c:	f944e281 	ldr	x1, [x20, #2496]
  404990:	9100c3e0 	add	x0, sp, #0x30
  404994:	d63f0020 	blr	x1
  404998:	37f80760 	tbnz	w0, #31, 404a84 <evalbackcmd+0x13c>
  40499c:	d0000163 	adrp	x3, 432000 <signal_names+0x100>
  4049a0:	52800021 	mov	w1, #0x1                   	// #1
  4049a4:	aa1503e0 	mov	x0, x21
  4049a8:	f9459062 	ldr	x2, [x3, #2848]
  4049ac:	d63f0040 	blr	x2
  4049b0:	aa0003f6 	mov	x22, x0
  4049b4:	d0000163 	adrp	x3, 432000 <signal_names+0x100>
  4049b8:	aa1503e1 	mov	x1, x21
  4049bc:	52800042 	mov	w2, #0x2                   	// #2
  4049c0:	f9467c63 	ldr	x3, [x3, #3320]
  4049c4:	d63f0060 	blr	x3
  4049c8:	340002a0 	cbz	w0, 404a1c <evalbackcmd+0xd4>
  4049cc:	d0000163 	adrp	x3, 432000 <signal_names+0x100>
  4049d0:	b94037e0 	ldr	w0, [sp, #52]
  4049d4:	f947b861 	ldr	x1, [x3, #3952]
  4049d8:	d63f0020 	blr	x1
  4049dc:	f9000e76 	str	x22, [x19, #24]
  4049e0:	b94033e0 	ldr	w0, [sp, #48]
  4049e4:	b9000260 	str	w0, [x19]
  4049e8:	f943d294 	ldr	x20, [x20, #1952]
  4049ec:	d0000163 	adrp	x3, 432000 <signal_names+0x100>
  4049f0:	f9401fe0 	ldr	x0, [sp, #56]
  4049f4:	f9400281 	ldr	x1, [x20]
  4049f8:	eb010000 	subs	x0, x0, x1
  4049fc:	d2800001 	mov	x1, #0x0                   	// #0
  404a00:	540000a1 	b.ne	404a14 <evalbackcmd+0xcc>  // b.any
  404a04:	a94153f3 	ldp	x19, x20, [sp, #16]
  404a08:	a9425bf5 	ldp	x21, x22, [sp, #32]
  404a0c:	a8c47bfd 	ldp	x29, x30, [sp], #64
  404a10:	d65f03c0 	ret
  404a14:	f944cc60 	ldr	x0, [x3, #2456]
  404a18:	d63f0000 	blr	x0
  404a1c:	f9434681 	ldr	x1, [x20, #1672]
  404a20:	f945a280 	ldr	x0, [x20, #2880]
  404a24:	b9400021 	ldr	w1, [x1]
  404a28:	b900001f 	str	wzr, [x0]
  404a2c:	35000341 	cbnz	w1, 404a94 <evalbackcmd+0x14c>
  404a30:	f947ba94 	ldr	x20, [x20, #3952]
  404a34:	b94033e0 	ldr	w0, [sp, #48]
  404a38:	d63f0280 	blr	x20
  404a3c:	b94037e0 	ldr	w0, [sp, #52]
  404a40:	7100041f 	cmp	w0, #0x1
  404a44:	540000e0 	b.eq	404a60 <evalbackcmd+0x118>  // b.none
  404a48:	d0000163 	adrp	x3, 432000 <signal_names+0x100>
  404a4c:	52800021 	mov	w1, #0x1                   	// #1
  404a50:	f9444862 	ldr	x2, [x3, #2192]
  404a54:	d63f0040 	blr	x2
  404a58:	b94037e0 	ldr	w0, [sp, #52]
  404a5c:	d63f0280 	blr	x20
  404a60:	d0000163 	adrp	x3, 432000 <signal_names+0x100>
  404a64:	f945b860 	ldr	x0, [x3, #2928]
  404a68:	d63f0000 	blr	x0
  404a6c:	aa1503e0 	mov	x0, x21
  404a70:	52800021 	mov	w1, #0x1                   	// #1
  404a74:	97fff8d3 	bl	402dc0 <evaltree>
  404a78:	d0000163 	adrp	x3, 432000 <signal_names+0x100>
  404a7c:	f944c460 	ldr	x0, [x3, #2440]
  404a80:	d63f0000 	blr	x0
  404a84:	f9461681 	ldr	x1, [x20, #3112]
  404a88:	90000120 	adrp	x0, 428000 <__subtf3+0x758>
  404a8c:	913f8000 	add	x0, x0, #0xfe0
  404a90:	d63f0020 	blr	x1
  404a94:	d0000163 	adrp	x3, 432000 <signal_names+0x100>
  404a98:	f943d460 	ldr	x0, [x3, #1960]
  404a9c:	d63f0000 	blr	x0
  404aa0:	17ffffe4 	b	404a30 <evalbackcmd+0xe8>
  404aa4:	d503201f 	nop

0000000000404aa8 <breakcmd>:
  404aa8:	a9be7bfd 	stp	x29, x30, [sp, #-32]!
  404aac:	7100041f 	cmp	w0, #0x1
  404ab0:	910003fd 	mov	x29, sp
  404ab4:	a90153f3 	stp	x19, x20, [sp, #16]
  404ab8:	aa0103f4 	mov	x20, x1
  404abc:	d0000173 	adrp	x19, 432000 <signal_names+0x100>
  404ac0:	540002ac 	b.gt	404b14 <breakcmd+0x6c>
  404ac4:	52800020 	mov	w0, #0x1                   	// #1
  404ac8:	f9475661 	ldr	x1, [x19, #3752]
  404acc:	b9400022 	ldr	w2, [x1]
  404ad0:	6b00005f 	cmp	w2, w0
  404ad4:	1a80d042 	csel	w2, w2, w0, le
  404ad8:	7100005f 	cmp	w2, #0x0
  404adc:	5400014d 	b.le	404b04 <breakcmd+0x5c>
  404ae0:	f9400284 	ldr	x4, [x20]
  404ae4:	f0000160 	adrp	x0, 433000 <__dso_handle>
  404ae8:	f9455e61 	ldr	x1, [x19, #2744]
  404aec:	b9033802 	str	w2, [x0, #824]
  404af0:	39400083 	ldrb	w3, [x4]
  404af4:	71018c7f 	cmp	w3, #0x63
  404af8:	1a9f17e0 	cset	w0, eq  // eq = none
  404afc:	11000400 	add	w0, w0, #0x1
  404b00:	b9000020 	str	w0, [x1]
  404b04:	52800000 	mov	w0, #0x0                   	// #0
  404b08:	a94153f3 	ldp	x19, x20, [sp, #16]
  404b0c:	a8c27bfd 	ldp	x29, x30, [sp], #32
  404b10:	d65f03c0 	ret
  404b14:	f944f261 	ldr	x1, [x19, #2528]
  404b18:	f9400680 	ldr	x0, [x20, #8]
  404b1c:	d63f0020 	blr	x1
  404b20:	7100001f 	cmp	w0, #0x0
  404b24:	54fffd2c 	b.gt	404ac8 <breakcmd+0x20>
  404b28:	f944ae61 	ldr	x1, [x19, #2392]
  404b2c:	f9400680 	ldr	x0, [x20, #8]
  404b30:	d63f0020 	blr	x1
  404b34:	d503201f 	nop

0000000000404b38 <returncmd>:
  404b38:	f9400420 	ldr	x0, [x1, #8]
  404b3c:	b4000180 	cbz	x0, 404b6c <returncmd+0x34>
  404b40:	a9bf7bfd 	stp	x29, x30, [sp, #-16]!
  404b44:	d0000164 	adrp	x4, 432000 <signal_names+0x100>
  404b48:	910003fd 	mov	x29, sp
  404b4c:	f944f081 	ldr	x1, [x4, #2528]
  404b50:	d63f0020 	blr	x1
  404b54:	d0000161 	adrp	x1, 432000 <signal_names+0x100>
  404b58:	52800083 	mov	w3, #0x4                   	// #4
  404b5c:	f9455c22 	ldr	x2, [x1, #2744]
  404b60:	b9000043 	str	w3, [x2]
  404b64:	a8c17bfd 	ldp	x29, x30, [sp], #16
  404b68:	d65f03c0 	ret
  404b6c:	d0000161 	adrp	x1, 432000 <signal_names+0x100>
  404b70:	52800103 	mov	w3, #0x8                   	// #8
  404b74:	f9479020 	ldr	x0, [x1, #3872]
  404b78:	f9455c22 	ldr	x2, [x1, #2744]
  404b7c:	b9400000 	ldr	w0, [x0]
  404b80:	b9000043 	str	w3, [x2]
  404b84:	d65f03c0 	ret

0000000000404b88 <falsecmd>:
  404b88:	52800020 	mov	w0, #0x1                   	// #1
  404b8c:	d65f03c0 	ret

0000000000404b90 <truecmd>:
  404b90:	52800000 	mov	w0, #0x0                   	// #0
  404b94:	d65f03c0 	ret

0000000000404b98 <execcmd>:
  404b98:	7100041f 	cmp	w0, #0x1
  404b9c:	5400006c 	b.gt	404ba8 <execcmd+0x10>
  404ba0:	52800000 	mov	w0, #0x0                   	// #0
  404ba4:	d65f03c0 	ret
  404ba8:	a9bd7bfd 	stp	x29, x30, [sp, #-48]!
  404bac:	910003fd 	mov	x29, sp
  404bb0:	f9000bf3 	str	x19, [sp, #16]
  404bb4:	d0000173 	adrp	x19, 432000 <signal_names+0x100>
  404bb8:	f90017e1 	str	x1, [sp, #40]
  404bbc:	f944b660 	ldr	x0, [x19, #2408]
  404bc0:	7800301f 	sturh	wzr, [x0, #3]
  404bc4:	f9466260 	ldr	x0, [x19, #3264]
  404bc8:	d63f0000 	blr	x0
  404bcc:	f9446e73 	ldr	x19, [x19, #2264]
  404bd0:	52800002 	mov	w2, #0x0                   	// #0
  404bd4:	f94017e1 	ldr	x1, [sp, #40]
  404bd8:	91002020 	add	x0, x1, #0x8
  404bdc:	f9403a61 	ldr	x1, [x19, #112]
  404be0:	d0000173 	adrp	x19, 432000 <signal_names+0x100>
  404be4:	f9446a63 	ldr	x3, [x19, #2256]
  404be8:	91001421 	add	x1, x1, #0x5
  404bec:	d63f0060 	blr	x3

0000000000404bf0 <tryexec>:
  404bf0:	a9bc7bfd 	stp	x29, x30, [sp, #-64]!
  404bf4:	d0000163 	adrp	x3, 432000 <signal_names+0x100>
  404bf8:	910003fd 	mov	x29, sp
  404bfc:	a90153f3 	stp	x19, x20, [sp, #16]
  404c00:	aa0003f3 	mov	x19, x0
  404c04:	aa0103f4 	mov	x20, x1
  404c08:	a9025bf5 	stp	x21, x22, [sp, #32]
  404c0c:	b0000135 	adrp	x21, 429000 <prec+0x170>
  404c10:	aa0203f6 	mov	x22, x2
  404c14:	910062b5 	add	x21, x21, #0x18
  404c18:	a90363f7 	stp	x23, x24, [sp, #48]
  404c1c:	f9440877 	ldr	x23, [x3, #2064]
  404c20:	f9471c78 	ldr	x24, [x3, #3640]
  404c24:	14000008 	b	404c44 <tryexec+0x54>
  404c28:	d63f0300 	blr	x24
  404c2c:	b9400000 	ldr	w0, [x0]
  404c30:	7100201f 	cmp	w0, #0x8
  404c34:	54000141 	b.ne	404c5c <tryexec+0x6c>  // b.any
  404c38:	f81f8693 	str	x19, [x20], #-8
  404c3c:	aa1503f3 	mov	x19, x21
  404c40:	f9000295 	str	x21, [x20]
  404c44:	aa1603e2 	mov	x2, x22
  404c48:	aa1403e1 	mov	x1, x20
  404c4c:	aa1303e0 	mov	x0, x19
  404c50:	d63f02e0 	blr	x23
  404c54:	eb15027f 	cmp	x19, x21
  404c58:	54fffe81 	b.ne	404c28 <tryexec+0x38>  // b.any
  404c5c:	a94153f3 	ldp	x19, x20, [sp, #16]
  404c60:	a9425bf5 	ldp	x21, x22, [sp, #32]
  404c64:	a94363f7 	ldp	x23, x24, [sp, #48]
  404c68:	a8c47bfd 	ldp	x29, x30, [sp], #64
  404c6c:	d65f03c0 	ret

0000000000404c70 <cmdlookup>:
  404c70:	a9bc7bfd 	stp	x29, x30, [sp, #-64]!
  404c74:	910003fd 	mov	x29, sp
  404c78:	a90153f3 	stp	x19, x20, [sp, #16]
  404c7c:	aa0003f4 	mov	x20, x0
  404c80:	a9025bf5 	stp	x21, x22, [sp, #32]
  404c84:	a90363f7 	stp	x23, x24, [sp, #48]
  404c88:	2a0103f7 	mov	w23, w1
  404c8c:	39400002 	ldrb	w2, [x0]
  404c90:	531c6c43 	lsl	w3, w2, #4
  404c94:	340000e2 	cbz	w2, 404cb0 <cmdlookup+0x40>
  404c98:	aa0003e4 	mov	x4, x0
  404c9c:	d503201f 	nop
  404ca0:	0b020063 	add	w3, w3, w2
  404ca4:	38401c82 	ldrb	w2, [x4, #1]!
  404ca8:	35ffffc2 	cbnz	w2, 404ca0 <cmdlookup+0x30>
  404cac:	12003863 	and	w3, w3, #0x7fff
  404cb0:	528210a0 	mov	w0, #0x1085                	// #4229
  404cb4:	f0000162 	adrp	x2, 433000 <__dso_handle>
  404cb8:	72a10840 	movk	w0, #0x842, lsl #16
  404cbc:	910d0042 	add	x2, x2, #0x340
  404cc0:	d0000178 	adrp	x24, 432000 <signal_names+0x100>
  404cc4:	9ba07c60 	umull	x0, w3, w0
  404cc8:	f9469316 	ldr	x22, [x24, #3360]
  404ccc:	d360fc01 	lsr	x1, x0, #32
  404cd0:	4b010060 	sub	w0, w3, w1
  404cd4:	0b400420 	add	w0, w1, w0, lsr #1
  404cd8:	53047c00 	lsr	w0, w0, #4
  404cdc:	531b6801 	lsl	w1, w0, #5
  404ce0:	4b000020 	sub	w0, w1, w0
  404ce4:	4b000063 	sub	w3, w3, w0
  404ce8:	8b030c55 	add	x21, x2, x3, lsl #3
  404cec:	f8637853 	ldr	x19, [x2, x3, lsl #3]
  404cf0:	b50000b3 	cbnz	x19, 404d04 <cmdlookup+0x94>
  404cf4:	14000010 	b	404d34 <cmdlookup+0xc4>
  404cf8:	aa1303f5 	mov	x21, x19
  404cfc:	f9400273 	ldr	x19, [x19]
  404d00:	b40001b3 	cbz	x19, 404d34 <cmdlookup+0xc4>
  404d04:	aa1403e1 	mov	x1, x20
  404d08:	91004e60 	add	x0, x19, #0x13
  404d0c:	d63f02c0 	blr	x22
  404d10:	35ffff40 	cbnz	w0, 404cf8 <cmdlookup+0x88>
  404d14:	f9455b02 	ldr	x2, [x24, #2736]
  404d18:	aa1303e0 	mov	x0, x19
  404d1c:	a94153f3 	ldp	x19, x20, [sp, #16]
  404d20:	a94363f7 	ldp	x23, x24, [sp, #48]
  404d24:	f9000055 	str	x21, [x2]
  404d28:	a9425bf5 	ldp	x21, x22, [sp, #32]
  404d2c:	a8c47bfd 	ldp	x29, x30, [sp], #64
  404d30:	d65f03c0 	ret
  404d34:	d2800013 	mov	x19, #0x0                   	// #0
  404d38:	34fffef7 	cbz	w23, 404d14 <cmdlookup+0xa4>
  404d3c:	d0000163 	adrp	x3, 432000 <signal_names+0x100>
  404d40:	aa1403e0 	mov	x0, x20
  404d44:	f9477061 	ldr	x1, [x3, #3808]
  404d48:	d63f0020 	blr	x1
  404d4c:	91006000 	add	x0, x0, #0x18
  404d50:	d0000163 	adrp	x3, 432000 <signal_names+0x100>
  404d54:	f9450061 	ldr	x1, [x3, #2560]
  404d58:	d63f0020 	blr	x1
  404d5c:	aa0003f3 	mov	x19, x0
  404d60:	d0000163 	adrp	x3, 432000 <signal_names+0x100>
  404d64:	12800002 	mov	w2, #0xffffffff            	// #-1
  404d68:	f90002b3 	str	x19, [x21]
  404d6c:	aa1403e1 	mov	x1, x20
  404d70:	79002262 	strh	w2, [x19, #16]
  404d74:	91004c00 	add	x0, x0, #0x13
  404d78:	f9436062 	ldr	x2, [x3, #1728]
  404d7c:	f900027f 	str	xzr, [x19]
  404d80:	d63f0040 	blr	x2
  404d84:	f9455b02 	ldr	x2, [x24, #2736]
  404d88:	aa1303e0 	mov	x0, x19
  404d8c:	a94153f3 	ldp	x19, x20, [sp, #16]
  404d90:	a94363f7 	ldp	x23, x24, [sp, #48]
  404d94:	f9000055 	str	x21, [x2]
  404d98:	a9425bf5 	ldp	x21, x22, [sp, #32]
  404d9c:	a8c47bfd 	ldp	x29, x30, [sp], #64
  404da0:	d65f03c0 	ret
  404da4:	d503201f 	nop

0000000000404da8 <clearcmdentry>:
  404da8:	a9bc7bfd 	stp	x29, x30, [sp, #-64]!
  404dac:	910003fd 	mov	x29, sp
  404db0:	a9025bf5 	stp	x21, x22, [sp, #32]
  404db4:	d0000175 	adrp	x21, 432000 <signal_names+0x100>
  404db8:	f945a2a1 	ldr	x1, [x21, #2880]
  404dbc:	a90153f3 	stp	x19, x20, [sp, #16]
  404dc0:	a90363f7 	stp	x23, x24, [sp, #48]
  404dc4:	b9400020 	ldr	w0, [x1]
  404dc8:	11000400 	add	w0, w0, #0x1
  404dcc:	b9000020 	str	w0, [x1]
  404dd0:	f0000176 	adrp	x22, 433000 <__dso_handle>
  404dd4:	f0000177 	adrp	x23, 433000 <__dso_handle>
  404dd8:	910d02d4 	add	x20, x22, #0x340
  404ddc:	910072f7 	add	x23, x23, #0x1c
  404de0:	f9400280 	ldr	x0, [x20]
  404de4:	aa1403f3 	mov	x19, x20
  404de8:	f947deb8 	ldr	x24, [x21, #4024]
  404dec:	b4000100 	cbz	x0, 404e0c <clearcmdentry+0x64>
  404df0:	79c02001 	ldrsh	w1, [x0, #16]
  404df4:	7100083f 	cmp	w1, #0x2
  404df8:	340003c1 	cbz	w1, 404e70 <clearcmdentry+0xc8>
  404dfc:	540002e0 	b.eq	404e58 <clearcmdentry+0xb0>  // b.none
  404e00:	aa0003f3 	mov	x19, x0
  404e04:	f9400260 	ldr	x0, [x19]
  404e08:	b5ffff40 	cbnz	x0, 404df0 <clearcmdentry+0x48>
  404e0c:	910d02c0 	add	x0, x22, #0x340
  404e10:	91002294 	add	x20, x20, #0x8
  404e14:	9103e000 	add	x0, x0, #0xf8
  404e18:	eb00029f 	cmp	x20, x0
  404e1c:	54fffe21 	b.ne	404de0 <clearcmdentry+0x38>  // b.any
  404e20:	f945a2a2 	ldr	x2, [x21, #2880]
  404e24:	d0000161 	adrp	x1, 432000 <signal_names+0x100>
  404e28:	b9400040 	ldr	w0, [x2]
  404e2c:	51000400 	sub	w0, w0, #0x1
  404e30:	b9000040 	str	w0, [x2]
  404e34:	35000080 	cbnz	w0, 404e44 <clearcmdentry+0x9c>
  404e38:	f94346b5 	ldr	x21, [x21, #1672]
  404e3c:	b94002a0 	ldr	w0, [x21]
  404e40:	35000200 	cbnz	w0, 404e80 <clearcmdentry+0xd8>
  404e44:	a94153f3 	ldp	x19, x20, [sp, #16]
  404e48:	a9425bf5 	ldp	x21, x22, [sp, #32]
  404e4c:	a94363f7 	ldp	x23, x24, [sp, #48]
  404e50:	a8c47bfd 	ldp	x29, x30, [sp], #64
  404e54:	d65f03c0 	ret
  404e58:	f9400401 	ldr	x1, [x0, #8]
  404e5c:	b9401021 	ldr	w1, [x1, #16]
  404e60:	370ffd01 	tbnz	w1, #1, 404e00 <clearcmdentry+0x58>
  404e64:	b94002e1 	ldr	w1, [x23]
  404e68:	7100003f 	cmp	w1, #0x0
  404e6c:	54fffcad 	b.le	404e00 <clearcmdentry+0x58>
  404e70:	f9400001 	ldr	x1, [x0]
  404e74:	f9000261 	str	x1, [x19]
  404e78:	d63f0300 	blr	x24
  404e7c:	17ffffe2 	b	404e04 <clearcmdentry+0x5c>
  404e80:	a94153f3 	ldp	x19, x20, [sp, #16]
  404e84:	a9425bf5 	ldp	x21, x22, [sp, #32]
  404e88:	a94363f7 	ldp	x23, x24, [sp, #48]
  404e8c:	a8c47bfd 	ldp	x29, x30, [sp], #64
  404e90:	f943d430 	ldr	x16, [x1, #1960]
  404e94:	d61f0200 	br	x16

0000000000404e98 <padvance_magic.constprop.0>:
  404e98:	a9ba7bfd 	stp	x29, x30, [sp, #-96]!
  404e9c:	910003fd 	mov	x29, sp
  404ea0:	a9025bf5 	stp	x21, x22, [sp, #32]
  404ea4:	f9400015 	ldr	x21, [x0]
  404ea8:	b4000e55 	cbz	x21, 405070 <padvance_magic.constprop.0+0x1d8>
  404eac:	a90153f3 	stp	x19, x20, [sp, #16]
  404eb0:	a90363f7 	stp	x23, x24, [sp, #48]
  404eb4:	aa0003f8 	mov	x24, x0
  404eb8:	aa0103f7 	mov	x23, x1
  404ebc:	a9046bf9 	stp	x25, x26, [sp, #64]
  404ec0:	394002a0 	ldrb	w0, [x21]
  404ec4:	7100941f 	cmp	w0, #0x25
  404ec8:	540006a0 	b.eq	404f9c <padvance_magic.constprop.0+0x104>  // b.none
  404ecc:	b0000121 	adrp	x1, 429000 <prec+0x170>
  404ed0:	91008021 	add	x1, x1, #0x20
  404ed4:	d2800019 	mov	x25, #0x0                   	// #0
  404ed8:	d0000176 	adrp	x22, 432000 <signal_names+0x100>
  404edc:	d0000164 	adrp	x4, 432000 <signal_names+0x100>
  404ee0:	aa1503e0 	mov	x0, x21
  404ee4:	f946b482 	ldr	x2, [x4, #3432]
  404ee8:	d63f0040 	blr	x2
  404eec:	aa0003f4 	mov	x20, x0
  404ef0:	8b0002b3 	add	x19, x21, x0
  404ef4:	38606aa0 	ldrb	w0, [x21, x0]
  404ef8:	7100941f 	cmp	w0, #0x25
  404efc:	540006e0 	b.eq	404fd8 <padvance_magic.constprop.0+0x140>  // b.none
  404f00:	f943c2c1 	ldr	x1, [x22, #1920]
  404f04:	aa1303e3 	mov	x3, x19
  404f08:	d0000164 	adrp	x4, 432000 <signal_names+0x100>
  404f0c:	aa1703e0 	mov	x0, x23
  404f10:	91000a93 	add	x19, x20, #0x2
  404f14:	f9000039 	str	x25, [x1]
  404f18:	38401461 	ldrb	w1, [x3], #1
  404f1c:	7100e83f 	cmp	w1, #0x3a
  404f20:	f9477081 	ldr	x1, [x4, #3808]
  404f24:	9a9f0063 	csel	x3, x3, xzr, eq  // eq = none
  404f28:	f9000303 	str	x3, [x24]
  404f2c:	d63f0020 	blr	x1
  404f30:	8b000273 	add	x19, x19, x0
  404f34:	d0000164 	adrp	x4, 432000 <signal_names+0x100>
  404f38:	aa1303e0 	mov	x0, x19
  404f3c:	f9433c81 	ldr	x1, [x4, #1656]
  404f40:	d63f0020 	blr	x1
  404f44:	aa0003e3 	mov	x3, x0
  404f48:	b4000134 	cbz	x20, 404f6c <padvance_magic.constprop.0+0xd4>
  404f4c:	d0000164 	adrp	x4, 432000 <signal_names+0x100>
  404f50:	aa1403e2 	mov	x2, x20
  404f54:	aa1503e1 	mov	x1, x21
  404f58:	f9449483 	ldr	x3, [x4, #2344]
  404f5c:	d63f0060 	blr	x3
  404f60:	aa0003e3 	mov	x3, x0
  404f64:	528005e0 	mov	w0, #0x2f                  	// #47
  404f68:	38001460 	strb	w0, [x3], #1
  404f6c:	d0000164 	adrp	x4, 432000 <signal_names+0x100>
  404f70:	aa1703e1 	mov	x1, x23
  404f74:	aa0303e0 	mov	x0, x3
  404f78:	f9436082 	ldr	x2, [x4, #1728]
  404f7c:	d63f0040 	blr	x2
  404f80:	2a1303e0 	mov	w0, w19
  404f84:	a94153f3 	ldp	x19, x20, [sp, #16]
  404f88:	a94363f7 	ldp	x23, x24, [sp, #48]
  404f8c:	a9446bf9 	ldp	x25, x26, [sp, #64]
  404f90:	a9425bf5 	ldp	x21, x22, [sp, #32]
  404f94:	a8c67bfd 	ldp	x29, x30, [sp], #96
  404f98:	d65f03c0 	ret
  404f9c:	d0000176 	adrp	x22, 432000 <signal_names+0x100>
  404fa0:	910006b9 	add	x25, x21, #0x1
  404fa4:	b0000121 	adrp	x1, 429000 <prec+0x170>
  404fa8:	aa1903e0 	mov	x0, x25
  404fac:	f945c6d3 	ldr	x19, [x22, #2952]
  404fb0:	9100c021 	add	x1, x1, #0x30
  404fb4:	d63f0260 	blr	x19
  404fb8:	b4000340 	cbz	x0, 405020 <padvance_magic.constprop.0+0x188>
  404fbc:	39400001 	ldrb	w1, [x0]
  404fc0:	7100943f 	cmp	w1, #0x25
  404fc4:	540004e0 	b.eq	405060 <padvance_magic.constprop.0+0x1c8>  // b.none
  404fc8:	b0000121 	adrp	x1, 429000 <prec+0x170>
  404fcc:	aa0003f5 	mov	x21, x0
  404fd0:	9100a021 	add	x1, x1, #0x28
  404fd4:	17ffffc2 	b	404edc <padvance_magic.constprop.0+0x44>
  404fd8:	d0000164 	adrp	x4, 432000 <signal_names+0x100>
  404fdc:	a90573fb 	stp	x27, x28, [sp, #80]
  404fe0:	52800741 	mov	w1, #0x3a                  	// #58
  404fe4:	f947ac82 	ldr	x2, [x4, #3928]
  404fe8:	aa1303e0 	mov	x0, x19
  404fec:	9100067b 	add	x27, x19, #0x1
  404ff0:	d63f0040 	blr	x2
  404ff4:	cb13001a 	sub	x26, x0, x19
  404ff8:	f945c6dc 	ldr	x28, [x22, #2952]
  404ffc:	b0000121 	adrp	x1, 429000 <prec+0x170>
  405000:	aa1b03e0 	mov	x0, x27
  405004:	9100c021 	add	x1, x1, #0x30
  405008:	d63f0380 	blr	x28
  40500c:	b40001c0 	cbz	x0, 405044 <padvance_magic.constprop.0+0x1ac>
  405010:	aa1b03f9 	mov	x25, x27
  405014:	8b1a0273 	add	x19, x19, x26
  405018:	a94573fb 	ldp	x27, x28, [sp, #80]
  40501c:	17ffffb9 	b	404f00 <padvance_magic.constprop.0+0x68>
  405020:	90000121 	adrp	x1, 429000 <prec+0x170>
  405024:	aa1903e0 	mov	x0, x25
  405028:	9100e021 	add	x1, x1, #0x38
  40502c:	d63f0260 	blr	x19
  405030:	b5fffc60 	cbnz	x0, 404fbc <padvance_magic.constprop.0+0x124>
  405034:	90000121 	adrp	x1, 429000 <prec+0x170>
  405038:	d2800019 	mov	x25, #0x0                   	// #0
  40503c:	91008021 	add	x1, x1, #0x20
  405040:	17ffffa7 	b	404edc <padvance_magic.constprop.0+0x44>
  405044:	90000121 	adrp	x1, 429000 <prec+0x170>
  405048:	aa1b03e0 	mov	x0, x27
  40504c:	9100e021 	add	x1, x1, #0x38
  405050:	d63f0380 	blr	x28
  405054:	b5fffde0 	cbnz	x0, 405010 <padvance_magic.constprop.0+0x178>
  405058:	8b1a0294 	add	x20, x20, x26
  40505c:	17ffffee 	b	405014 <padvance_magic.constprop.0+0x17c>
  405060:	90000121 	adrp	x1, 429000 <prec+0x170>
  405064:	91000415 	add	x21, x0, #0x1
  405068:	9100a021 	add	x1, x1, #0x28
  40506c:	17ffff9c 	b	404edc <padvance_magic.constprop.0+0x44>
  405070:	12800000 	mov	w0, #0xffffffff            	// #-1
  405074:	17ffffc7 	b	404f90 <padvance_magic.constprop.0+0xf8>

0000000000405078 <shellexec>:
  405078:	a9b97bfd 	stp	x29, x30, [sp, #-112]!
  40507c:	b0000164 	adrp	x4, 432000 <signal_names+0x100>
  405080:	910003fd 	mov	x29, sp
  405084:	f943c883 	ldr	x3, [x4, #1936]
  405088:	a90153f3 	stp	x19, x20, [sp, #16]
  40508c:	2a0203f3 	mov	w19, w2
  405090:	a9025bf5 	stp	x21, x22, [sp, #32]
  405094:	aa0003f5 	mov	x21, x0
  405098:	d2800002 	mov	x2, #0x0                   	// #0
  40509c:	a90363f7 	stp	x23, x24, [sp, #48]
  4050a0:	b0000177 	adrp	x23, 432000 <signal_names+0x100>
  4050a4:	52800020 	mov	w0, #0x1                   	// #1
  4050a8:	a9046bf9 	stp	x25, x26, [sp, #64]
  4050ac:	a90573fb 	stp	x27, x28, [sp, #80]
  4050b0:	f90037e1 	str	x1, [sp, #104]
  4050b4:	52800401 	mov	w1, #0x20                  	// #32
  4050b8:	d63f0060 	blr	x3
  4050bc:	aa0003f9 	mov	x25, x0
  4050c0:	f9478ee2 	ldr	x2, [x23, #3864]
  4050c4:	528005e1 	mov	w1, #0x2f                  	// #47
  4050c8:	f94002b4 	ldr	x20, [x21]
  4050cc:	aa1403e0 	mov	x0, x20
  4050d0:	d63f0040 	blr	x2
  4050d4:	b4000440 	cbz	x0, 40515c <shellexec+0xe4>
  4050d8:	aa1903e2 	mov	x2, x25
  4050dc:	aa1403e0 	mov	x0, x20
  4050e0:	aa1503e1 	mov	x1, x21
  4050e4:	97fffec3 	bl	404bf0 <tryexec>
  4050e8:	f9471ee0 	ldr	x0, [x23, #3640]
  4050ec:	d63f0000 	blr	x0
  4050f0:	b9400016 	ldr	w22, [x0]
  4050f4:	7100a2df 	cmp	w22, #0x28
  4050f8:	54000668 	b.hi	4051c4 <shellexec+0x14c>  // b.pmore
  4050fc:	d2800080 	mov	x0, #0x4                   	// #4
  405100:	d2800021 	mov	x1, #0x1                   	// #1
  405104:	f2a00200 	movk	x0, #0x10, lsl #16
  405108:	9ad62021 	lsl	x1, x1, x22
  40510c:	f2c02200 	movk	x0, #0x110, lsl #32
  405110:	ea00003f 	tst	x1, x0
  405114:	1a9f07e1 	cset	w1, ne  // ne = any
  405118:	1101f823 	add	w3, w1, #0x7e
  40511c:	b0000164 	adrp	x4, 432000 <signal_names+0x100>
  405120:	52800081 	mov	w1, #0x4                   	// #4
  405124:	f94792f7 	ldr	x23, [x23, #3872]
  405128:	2a1603e0 	mov	w0, w22
  40512c:	f9446482 	ldr	x2, [x4, #2248]
  405130:	f94002b3 	ldr	x19, [x21]
  405134:	b90002e3 	str	w3, [x23]
  405138:	d63f0040 	blr	x2
  40513c:	aa0003e3 	mov	x3, x0
  405140:	b0000164 	adrp	x4, 432000 <signal_names+0x100>
  405144:	90000121 	adrp	x1, 429000 <prec+0x170>
  405148:	aa1303e2 	mov	x2, x19
  40514c:	91010021 	add	x1, x1, #0x40
  405150:	f9442c84 	ldr	x4, [x4, #2136]
  405154:	52800060 	mov	w0, #0x3                   	// #3
  405158:	d63f0080 	blr	x4
  40515c:	f943c2fa 	ldr	x26, [x23, #1920]
  405160:	9101a3f8 	add	x24, sp, #0x68
  405164:	f9479efc 	ldr	x28, [x23, #3896]
  405168:	52800056 	mov	w22, #0x2                   	// #2
  40516c:	f9471efb 	ldr	x27, [x23, #3640]
  405170:	aa1403e1 	mov	x1, x20
  405174:	aa1803e0 	mov	x0, x24
  405178:	97ffff48 	bl	404e98 <padvance_magic.constprop.0>
  40517c:	37fffbc0 	tbnz	w0, #31, 4050f4 <shellexec+0x7c>
  405180:	71000673 	subs	w19, w19, #0x1
  405184:	54000064 	b.mi	405190 <shellexec+0x118>  // b.first
  405188:	f94002b4 	ldr	x20, [x21]
  40518c:	17fffff9 	b	405170 <shellexec+0xf8>
  405190:	f9400340 	ldr	x0, [x26]
  405194:	b5ffffa0 	cbnz	x0, 405188 <shellexec+0x110>
  405198:	f9400380 	ldr	x0, [x28]
  40519c:	aa1903e2 	mov	x2, x25
  4051a0:	aa1503e1 	mov	x1, x21
  4051a4:	97fffe93 	bl	404bf0 <tryexec>
  4051a8:	d63f0360 	blr	x27
  4051ac:	b9400000 	ldr	w0, [x0]
  4051b0:	f94002b4 	ldr	x20, [x21]
  4051b4:	7100081f 	cmp	w0, #0x2
  4051b8:	7a541804 	ccmp	w0, #0x14, #0x4, ne  // ne = any
  4051bc:	1a8002d6 	csel	w22, w22, w0, eq  // eq = none
  4051c0:	17ffffec 	b	405170 <shellexec+0xf8>
  4051c4:	52800fc3 	mov	w3, #0x7e                  	// #126
  4051c8:	17ffffd5 	b	40511c <shellexec+0xa4>
  4051cc:	d503201f 	nop

00000000004051d0 <padvance_magic>:
  4051d0:	a9b97bfd 	stp	x29, x30, [sp, #-112]!
  4051d4:	910003fd 	mov	x29, sp
  4051d8:	a90363f7 	stp	x23, x24, [sp, #48]
  4051dc:	f9400017 	ldr	x23, [x0]
  4051e0:	b40017f7 	cbz	x23, 4054dc <padvance_magic+0x30c>
  4051e4:	a90153f3 	stp	x19, x20, [sp, #16]
  4051e8:	2a0203f8 	mov	w24, w2
  4051ec:	a9025bf5 	stp	x21, x22, [sp, #32]
  4051f0:	aa0103f5 	mov	x21, x1
  4051f4:	a9046bf9 	stp	x25, x26, [sp, #64]
  4051f8:	aa0003fa 	mov	x26, x0
  4051fc:	394002e1 	ldrb	w1, [x23]
  405200:	7100943f 	cmp	w1, #0x25
  405204:	540006a0 	b.eq	4052d8 <padvance_magic+0x108>  // b.none
  405208:	b0000164 	adrp	x4, 432000 <signal_names+0x100>
  40520c:	90000121 	adrp	x1, 429000 <prec+0x170>
  405210:	91008021 	add	x1, x1, #0x20
  405214:	aa1703e0 	mov	x0, x23
  405218:	f946b482 	ldr	x2, [x4, #3432]
  40521c:	b0000179 	adrp	x25, 432000 <signal_names+0x100>
  405220:	d2800016 	mov	x22, #0x0                   	// #0
  405224:	d63f0040 	blr	x2
  405228:	38606ae1 	ldrb	w1, [x23, x0]
  40522c:	aa0003f4 	mov	x20, x0
  405230:	8b0002f3 	add	x19, x23, x0
  405234:	7100943f 	cmp	w1, #0x25
  405238:	54000ca0 	b.eq	4053cc <padvance_magic+0x1fc>  // b.none
  40523c:	f943c321 	ldr	x1, [x25, #1920]
  405240:	aa1303e3 	mov	x3, x19
  405244:	b0000164 	adrp	x4, 432000 <signal_names+0x100>
  405248:	aa1503e0 	mov	x0, x21
  40524c:	91000a93 	add	x19, x20, #0x2
  405250:	f9000036 	str	x22, [x1]
  405254:	38401461 	ldrb	w1, [x3], #1
  405258:	7100e83f 	cmp	w1, #0x3a
  40525c:	f9477081 	ldr	x1, [x4, #3808]
  405260:	9a9f0063 	csel	x3, x3, xzr, eq  // eq = none
  405264:	f9000343 	str	x3, [x26]
  405268:	d63f0020 	blr	x1
  40526c:	8b000273 	add	x19, x19, x0
  405270:	b0000164 	adrp	x4, 432000 <signal_names+0x100>
  405274:	aa1303e0 	mov	x0, x19
  405278:	f9433c81 	ldr	x1, [x4, #1656]
  40527c:	d63f0020 	blr	x1
  405280:	aa0003e3 	mov	x3, x0
  405284:	b4000134 	cbz	x20, 4052a8 <padvance_magic+0xd8>
  405288:	b0000164 	adrp	x4, 432000 <signal_names+0x100>
  40528c:	aa1403e2 	mov	x2, x20
  405290:	aa1703e1 	mov	x1, x23
  405294:	f9449483 	ldr	x3, [x4, #2344]
  405298:	d63f0060 	blr	x3
  40529c:	aa0003e3 	mov	x3, x0
  4052a0:	528005e0 	mov	w0, #0x2f                  	// #47
  4052a4:	38001460 	strb	w0, [x3], #1
  4052a8:	b0000164 	adrp	x4, 432000 <signal_names+0x100>
  4052ac:	aa1503e1 	mov	x1, x21
  4052b0:	aa0303e0 	mov	x0, x3
  4052b4:	f9436082 	ldr	x2, [x4, #1728]
  4052b8:	d63f0040 	blr	x2
  4052bc:	2a1303e0 	mov	w0, w19
  4052c0:	a94153f3 	ldp	x19, x20, [sp, #16]
  4052c4:	a9425bf5 	ldp	x21, x22, [sp, #32]
  4052c8:	a9446bf9 	ldp	x25, x26, [sp, #64]
  4052cc:	a94363f7 	ldp	x23, x24, [sp, #48]
  4052d0:	a8c77bfd 	ldp	x29, x30, [sp], #112
  4052d4:	d65f03c0 	ret
  4052d8:	910006f6 	add	x22, x23, #0x1
  4052dc:	340005c2 	cbz	w2, 405394 <padvance_magic+0x1c4>
  4052e0:	7100045f 	cmp	w2, #0x1
  4052e4:	54000461 	b.ne	405370 <padvance_magic+0x1a0>  // b.any
  4052e8:	b0000179 	adrp	x25, 432000 <signal_names+0x100>
  4052ec:	90000120 	adrp	x0, 429000 <prec+0x170>
  4052f0:	aa0003e1 	mov	x1, x0
  4052f4:	aa1603e0 	mov	x0, x22
  4052f8:	f945c733 	ldr	x19, [x25, #2952]
  4052fc:	f90037e1 	str	x1, [sp, #104]
  405300:	9100c021 	add	x1, x1, #0x30
  405304:	d63f0260 	blr	x19
  405308:	b40009c0 	cbz	x0, 405440 <padvance_magic+0x270>
  40530c:	aa0003f7 	mov	x23, x0
  405310:	394002e0 	ldrb	w0, [x23]
  405314:	b0000164 	adrp	x4, 432000 <signal_names+0x100>
  405318:	90000121 	adrp	x1, 429000 <prec+0x170>
  40531c:	9100a021 	add	x1, x1, #0x28
  405320:	7100941f 	cmp	w0, #0x25
  405324:	f946b482 	ldr	x2, [x4, #3432]
  405328:	9a9716f7 	cinc	x23, x23, eq  // eq = none
  40532c:	aa1703e0 	mov	x0, x23
  405330:	d63f0040 	blr	x2
  405334:	aa0003f4 	mov	x20, x0
  405338:	8b0002f3 	add	x19, x23, x0
  40533c:	38606ae0 	ldrb	w0, [x23, x0]
  405340:	7100941f 	cmp	w0, #0x25
  405344:	54fff7c1 	b.ne	40523c <padvance_magic+0x6c>  // b.any
  405348:	b0000164 	adrp	x4, 432000 <signal_names+0x100>
  40534c:	a90573fb 	stp	x27, x28, [sp, #80]
  405350:	aa1303e0 	mov	x0, x19
  405354:	f947ac82 	ldr	x2, [x4, #3928]
  405358:	aa1603fb 	mov	x27, x22
  40535c:	52800741 	mov	w1, #0x3a                  	// #58
  405360:	91000676 	add	x22, x19, #0x1
  405364:	d63f0040 	blr	x2
  405368:	cb13001c 	sub	x28, x0, x19
  40536c:	14000021 	b	4053f0 <padvance_magic+0x220>
  405370:	b0000164 	adrp	x4, 432000 <signal_names+0x100>
  405374:	aa1603e0 	mov	x0, x22
  405378:	90000121 	adrp	x1, 429000 <prec+0x170>
  40537c:	b0000179 	adrp	x25, 432000 <signal_names+0x100>
  405380:	f946b482 	ldr	x2, [x4, #3432]
  405384:	91008021 	add	x1, x1, #0x20
  405388:	d63f0040 	blr	x2
  40538c:	8b0002d7 	add	x23, x22, x0
  405390:	17ffffe0 	b	405310 <padvance_magic+0x140>
  405394:	b0000164 	adrp	x4, 432000 <signal_names+0x100>
  405398:	aa1703e0 	mov	x0, x23
  40539c:	90000121 	adrp	x1, 429000 <prec+0x170>
  4053a0:	91008021 	add	x1, x1, #0x20
  4053a4:	f946b482 	ldr	x2, [x4, #3432]
  4053a8:	b0000179 	adrp	x25, 432000 <signal_names+0x100>
  4053ac:	d63f0040 	blr	x2
  4053b0:	aa0003f4 	mov	x20, x0
  4053b4:	8b0002f3 	add	x19, x23, x0
  4053b8:	38606ae0 	ldrb	w0, [x23, x0]
  4053bc:	7100941f 	cmp	w0, #0x25
  4053c0:	540006a0 	b.eq	405494 <padvance_magic+0x2c4>  // b.none
  4053c4:	d2800016 	mov	x22, #0x0                   	// #0
  4053c8:	17ffff9d 	b	40523c <padvance_magic+0x6c>
  4053cc:	f947af22 	ldr	x2, [x25, #3928]
  4053d0:	a90573fb 	stp	x27, x28, [sp, #80]
  4053d4:	aa1303e0 	mov	x0, x19
  4053d8:	52800741 	mov	w1, #0x3a                  	// #58
  4053dc:	91000676 	add	x22, x19, #0x1
  4053e0:	d63f0040 	blr	x2
  4053e4:	d280001b 	mov	x27, #0x0                   	// #0
  4053e8:	cb13001c 	sub	x28, x0, x19
  4053ec:	34000258 	cbz	w24, 405434 <padvance_magic+0x264>
  4053f0:	7100071f 	cmp	w24, #0x1
  4053f4:	54000080 	b.eq	405404 <padvance_magic+0x234>  // b.none
  4053f8:	8b1c0273 	add	x19, x19, x28
  4053fc:	a94573fb 	ldp	x27, x28, [sp, #80]
  405400:	17ffff8f 	b	40523c <padvance_magic+0x6c>
  405404:	90000120 	adrp	x0, 429000 <prec+0x170>
  405408:	f90037e0 	str	x0, [sp, #104]
  40540c:	f945c738 	ldr	x24, [x25, #2952]
  405410:	9100c001 	add	x1, x0, #0x30
  405414:	aa1603e0 	mov	x0, x22
  405418:	d63f0300 	blr	x24
  40541c:	b5fffee0 	cbnz	x0, 4053f8 <padvance_magic+0x228>
  405420:	90000121 	adrp	x1, 429000 <prec+0x170>
  405424:	aa1603e0 	mov	x0, x22
  405428:	9100e021 	add	x1, x1, #0x38
  40542c:	d63f0300 	blr	x24
  405430:	b5fffe40 	cbnz	x0, 4053f8 <padvance_magic+0x228>
  405434:	8b1c0294 	add	x20, x20, x28
  405438:	aa1b03f6 	mov	x22, x27
  40543c:	17ffffef 	b	4053f8 <padvance_magic+0x228>
  405440:	a90573fb 	stp	x27, x28, [sp, #80]
  405444:	aa1603e0 	mov	x0, x22
  405448:	90000121 	adrp	x1, 429000 <prec+0x170>
  40544c:	9100e021 	add	x1, x1, #0x38
  405450:	d63f0260 	blr	x19
  405454:	aa0003fb 	mov	x27, x0
  405458:	b5000460 	cbnz	x0, 4054e4 <padvance_magic+0x314>
  40545c:	b0000164 	adrp	x4, 432000 <signal_names+0x100>
  405460:	aa1703e0 	mov	x0, x23
  405464:	90000121 	adrp	x1, 429000 <prec+0x170>
  405468:	91008021 	add	x1, x1, #0x20
  40546c:	f946b482 	ldr	x2, [x4, #3432]
  405470:	d63f0040 	blr	x2
  405474:	aa0003f4 	mov	x20, x0
  405478:	8b0002f3 	add	x19, x23, x0
  40547c:	38606ae0 	ldrb	w0, [x23, x0]
  405480:	7100941f 	cmp	w0, #0x25
  405484:	540001a0 	b.eq	4054b8 <padvance_magic+0x2e8>  // b.none
  405488:	d2800016 	mov	x22, #0x0                   	// #0
  40548c:	a94573fb 	ldp	x27, x28, [sp, #80]
  405490:	17ffff6b 	b	40523c <padvance_magic+0x6c>
  405494:	b0000164 	adrp	x4, 432000 <signal_names+0x100>
  405498:	a90573fb 	stp	x27, x28, [sp, #80]
  40549c:	aa1303e0 	mov	x0, x19
  4054a0:	f947ac82 	ldr	x2, [x4, #3928]
  4054a4:	52800741 	mov	w1, #0x3a                  	// #58
  4054a8:	d280001b 	mov	x27, #0x0                   	// #0
  4054ac:	d63f0040 	blr	x2
  4054b0:	cb13001c 	sub	x28, x0, x19
  4054b4:	17ffffe0 	b	405434 <padvance_magic+0x264>
  4054b8:	b0000164 	adrp	x4, 432000 <signal_names+0x100>
  4054bc:	aa1303e0 	mov	x0, x19
  4054c0:	52800741 	mov	w1, #0x3a                  	// #58
  4054c4:	91000676 	add	x22, x19, #0x1
  4054c8:	f947ac82 	ldr	x2, [x4, #3928]
  4054cc:	d63f0040 	blr	x2
  4054d0:	cb13001c 	sub	x28, x0, x19
  4054d4:	f94037e0 	ldr	x0, [sp, #104]
  4054d8:	17ffffcd 	b	40540c <padvance_magic+0x23c>
  4054dc:	12800000 	mov	w0, #0xffffffff            	// #-1
  4054e0:	17ffff7b 	b	4052cc <padvance_magic+0xfc>
  4054e4:	aa0003f7 	mov	x23, x0
  4054e8:	a94573fb 	ldp	x27, x28, [sp, #80]
  4054ec:	17ffff89 	b	405310 <padvance_magic+0x140>

00000000004054f0 <find_command>:
  4054f0:	a9ac7bfd 	stp	x29, x30, [sp, #-320]!
  4054f4:	910003fd 	mov	x29, sp
  4054f8:	a9046bf9 	stp	x25, x26, [sp, #64]
  4054fc:	b000017a 	adrp	x26, 432000 <signal_names+0x100>
  405500:	f943d344 	ldr	x4, [x26, #1952]
  405504:	a90153f3 	stp	x19, x20, [sp, #16]
  405508:	2a0203f3 	mov	w19, w2
  40550c:	f9478f42 	ldr	x2, [x26, #3864]
  405510:	aa0103f4 	mov	x20, x1
  405514:	f9400081 	ldr	x1, [x4]
  405518:	f9009fe1 	str	x1, [sp, #312]
  40551c:	d2800001 	mov	x1, #0x0                   	// #0
  405520:	a9025bf5 	stp	x21, x22, [sp, #32]
  405524:	528005e1 	mov	w1, #0x2f                  	// #47
  405528:	aa0003f5 	mov	x21, x0
  40552c:	f90057e3 	str	x3, [sp, #168]
  405530:	d63f0040 	blr	x2
  405534:	b4000320 	cbz	x0, 405598 <find_command+0xa8>
  405538:	12800016 	mov	w22, #0xffffffff            	// #-1
  40553c:	b9000a96 	str	w22, [x20, #8]
  405540:	370801d3 	tbnz	w19, #1, 405578 <find_command+0x88>
  405544:	b900029f 	str	wzr, [x20]
  405548:	f943d345 	ldr	x5, [x26, #1952]
  40554c:	b0000167 	adrp	x7, 432000 <signal_names+0x100>
  405550:	f9409fe0 	ldr	x0, [sp, #312]
  405554:	f94000a1 	ldr	x1, [x5]
  405558:	eb010000 	subs	x0, x0, x1
  40555c:	d2800001 	mov	x1, #0x0                   	// #0
  405560:	540039e1 	b.ne	405c9c <find_command+0x7ac>  // b.any
  405564:	a94153f3 	ldp	x19, x20, [sp, #16]
  405568:	a9425bf5 	ldp	x21, x22, [sp, #32]
  40556c:	a9446bf9 	ldp	x25, x26, [sp, #64]
  405570:	a8d47bfd 	ldp	x29, x30, [sp], #320
  405574:	d65f03c0 	ret
  405578:	b0000167 	adrp	x7, 432000 <signal_names+0x100>
  40557c:	aa1503e0 	mov	x0, x21
  405580:	9102e3e1 	add	x1, sp, #0xb8
  405584:	f94700e2 	ldr	x2, [x7, #3584]
  405588:	d63f0040 	blr	x2
  40558c:	36fffdc0 	tbz	w0, #31, 405544 <find_command+0x54>
  405590:	b9000296 	str	w22, [x20]
  405594:	17ffffed 	b	405548 <find_command+0x58>
  405598:	f9446f40 	ldr	x0, [x26, #2264]
  40559c:	321d0264 	orr	w4, w19, #0x8
  4055a0:	f94057e3 	ldr	x3, [sp, #168]
  4055a4:	52800001 	mov	w1, #0x0                   	// #0
  4055a8:	f9403802 	ldr	x2, [x0, #112]
  4055ac:	aa1503e0 	mov	x0, x21
  4055b0:	a90363f7 	stp	x23, x24, [sp, #48]
  4055b4:	91001442 	add	x2, x2, #0x5
  4055b8:	eb03005f 	cmp	x2, x3
  4055bc:	a90573fb 	stp	x27, x28, [sp, #80]
  4055c0:	1a9f17f6 	cset	w22, eq  // eq = none
  4055c4:	1a931093 	csel	w19, w4, w19, ne  // ne = any
  4055c8:	2a1603f7 	mov	w23, w22
  4055cc:	97fffda9 	bl	404c70 <cmdlookup>
  4055d0:	aa0003fc 	mov	x28, x0
  4055d4:	b4000280 	cbz	x0, 405624 <find_command+0x134>
  4055d8:	79c02000 	ldrsh	w0, [x0, #16]
  4055dc:	7100041f 	cmp	w0, #0x1
  4055e0:	540001a0 	b.eq	405614 <find_command+0x124>  // b.none
  4055e4:	7100081f 	cmp	w0, #0x2
  4055e8:	54000b60 	b.eq	405754 <find_command+0x264>  // b.none
  4055ec:	52800301 	mov	w1, #0x18                  	// #24
  4055f0:	6a010261 	ands	w1, w19, w1
  4055f4:	54000b60 	b.eq	405760 <find_command+0x270>  // b.none
  4055f8:	121c0037 	and	w23, w1, #0x10
  4055fc:	362013c1 	tbz	w1, #4, 405874 <find_command+0x384>
  405600:	12800000 	mov	w0, #0xffffffff            	// #-1
  405604:	a94363f7 	ldp	x23, x24, [sp, #48]
  405608:	a94573fb 	ldp	x27, x28, [sp, #80]
  40560c:	b9000280 	str	w0, [x20]
  405610:	17ffffce 	b	405548 <find_command+0x58>
  405614:	36100a73 	tbz	w19, #2, 405760 <find_command+0x270>
  405618:	d280001c 	mov	x28, #0x0                   	// #0
  40561c:	52800016 	mov	w22, #0x0                   	// #0
  405620:	52800017 	mov	w23, #0x0                   	// #0
  405624:	b0000167 	adrp	x7, 432000 <signal_names+0x100>
  405628:	9102c3e0 	add	x0, sp, #0xb0
  40562c:	f945ff44 	ldr	x4, [x26, #3064]
  405630:	d2800303 	mov	x3, #0x18                  	// #24
  405634:	f9471741 	ldr	x1, [x26, #3624]
  405638:	d28004e2 	mov	x2, #0x27                  	// #39
  40563c:	f943f8e5 	ldr	x5, [x7, #2032]
  405640:	f9005bf5 	str	x21, [sp, #176]
  405644:	d63f00a0 	blr	x5
  405648:	aa0003fb 	mov	x27, x0
  40564c:	b4000160 	cbz	x0, 405678 <find_command+0x188>
  405650:	d0000161 	adrp	x1, 433000 <__dso_handle>
  405654:	b9401362 	ldr	w2, [x27, #16]
  405658:	121d0260 	and	w0, w19, #0x8
  40565c:	b9401c21 	ldr	w1, [x1, #28]
  405660:	121f0042 	and	w2, w2, #0x2
  405664:	7100003f 	cmp	w1, #0x0
  405668:	1a9fc7e1 	cset	w1, le
  40566c:	2a000020 	orr	w0, w1, w0
  405670:	2a020000 	orr	w0, w0, w2
  405674:	35000ba0 	cbnz	w0, 4057e8 <find_command+0x2f8>
  405678:	3727fc53 	tbnz	w19, #4, 405600 <find_command+0x110>
  40567c:	12800000 	mov	w0, #0xffffffff            	// #-1
  405680:	b9006be0 	str	w0, [sp, #104]
  405684:	b400007c 	cbz	x28, 405690 <find_command+0x1a0>
  405688:	39404b80 	ldrb	w0, [x28, #18]
  40568c:	35000e80 	cbnz	w0, 40585c <find_command+0x36c>
  405690:	371007b3 	tbnz	w19, #2, 405784 <find_command+0x294>
  405694:	b40016bb 	cbz	x27, 405968 <find_command+0x478>
  405698:	f943c340 	ldr	x0, [x26, #1920]
  40569c:	f9003be0 	str	x0, [sp, #112]
  4056a0:	f9479f40 	ldr	x0, [x26, #3896]
  4056a4:	f9003fe0 	str	x0, [sp, #120]
  4056a8:	9102e3e0 	add	x0, sp, #0xb8
  4056ac:	f90043e0 	str	x0, [sp, #128]
  4056b0:	f9470340 	ldr	x0, [x26, #3584]
  4056b4:	9102a3f8 	add	x24, sp, #0xa8
  4056b8:	12800019 	mov	w25, #0xffffffff            	// #-1
  4056bc:	f90047e0 	str	x0, [sp, #136]
  4056c0:	52800040 	mov	w0, #0x2                   	// #2
  4056c4:	b900a3e0 	str	w0, [sp, #160]
  4056c8:	aa1503e1 	mov	x1, x21
  4056cc:	aa1803e0 	mov	x0, x24
  4056d0:	97fffdf2 	bl	404e98 <padvance_magic.constprop.0>
  4056d4:	2a0003e8 	mov	w8, w0
  4056d8:	37f81ae0 	tbnz	w0, #31, 405a34 <find_command+0x544>
  4056dc:	f9403be0 	ldr	x0, [sp, #112]
  4056e0:	11000739 	add	w25, w25, #0x1
  4056e4:	f9400009 	ldr	x9, [x0]
  4056e8:	b4000089 	cbz	x9, 4056f8 <find_command+0x208>
  4056ec:	39400120 	ldrb	w0, [x9]
  4056f0:	7101881f 	cmp	w0, #0x62
  4056f4:	540007a0 	b.eq	4057e8 <find_command+0x2f8>  // b.none
  4056f8:	f9403fe0 	ldr	x0, [sp, #120]
  4056fc:	f9400002 	ldr	x2, [x0]
  405700:	39400040 	ldrb	w0, [x2]
  405704:	7100bc1f 	cmp	w0, #0x2f
  405708:	b9406be0 	ldr	w0, [sp, #104]
  40570c:	7a590001 	ccmp	w0, w25, #0x1, eq  // eq = none
  405710:	54001faa 	b.ge	405b04 <find_command+0x614>  // b.tcont
  405714:	aa0203e0 	mov	x0, x2
  405718:	a90927e2 	stp	x2, x9, [sp, #144]
  40571c:	f94043e1 	ldr	x1, [sp, #128]
  405720:	b900a7e8 	str	w8, [sp, #164]
  405724:	f94047e2 	ldr	x2, [sp, #136]
  405728:	d63f0040 	blr	x2
  40572c:	37f80aa0 	tbnz	w0, #31, 405880 <find_command+0x390>
  405730:	b940cbe0 	ldr	w0, [sp, #200]
  405734:	b940a7e8 	ldr	w8, [sp, #164]
  405738:	12140c00 	and	w0, w0, #0xf000
  40573c:	7140201f 	cmp	w0, #0x8, lsl #12
  405740:	a94927e2 	ldp	x2, x9, [sp, #144]
  405744:	54000de0 	b.eq	405900 <find_command+0x410>  // b.none
  405748:	528001a0 	mov	w0, #0xd                   	// #13
  40574c:	b900a3e0 	str	w0, [sp, #160]
  405750:	17ffffde 	b	4056c8 <find_command+0x1d8>
  405754:	f9400781 	ldr	x1, [x28, #8]
  405758:	b9401021 	ldr	w1, [x1, #16]
  40575c:	360807c1 	tbz	w1, #1, 405854 <find_command+0x364>
  405760:	39404b81 	ldrb	w1, [x28, #18]
  405764:	35fff601 	cbnz	w1, 405624 <find_command+0x134>
  405768:	39004b9f 	strb	wzr, [x28, #18]
  40576c:	f9400781 	ldr	x1, [x28, #8]
  405770:	a94363f7 	ldp	x23, x24, [sp, #48]
  405774:	a94573fb 	ldp	x27, x28, [sp, #80]
  405778:	b9000280 	str	w0, [x20]
  40577c:	f9000681 	str	x1, [x20, #8]
  405780:	17ffff72 	b	405548 <find_command+0x58>
  405784:	b4001d1b 	cbz	x27, 405b24 <find_command+0x634>
  405788:	f943c340 	ldr	x0, [x26, #1920]
  40578c:	f9003be0 	str	x0, [sp, #112]
  405790:	f9479f40 	ldr	x0, [x26, #3896]
  405794:	f9003fe0 	str	x0, [sp, #120]
  405798:	9102e3e0 	add	x0, sp, #0xb8
  40579c:	f90043e0 	str	x0, [sp, #128]
  4057a0:	f9470340 	ldr	x0, [x26, #3584]
  4057a4:	9102a3f8 	add	x24, sp, #0xa8
  4057a8:	12800019 	mov	w25, #0xffffffff            	// #-1
  4057ac:	f90047e0 	str	x0, [sp, #136]
  4057b0:	52800040 	mov	w0, #0x2                   	// #2
  4057b4:	b900a3e0 	str	w0, [sp, #160]
  4057b8:	aa1503e1 	mov	x1, x21
  4057bc:	aa1803e0 	mov	x0, x24
  4057c0:	97fffdb6 	bl	404e98 <padvance_magic.constprop.0>
  4057c4:	37f81380 	tbnz	w0, #31, 405a34 <find_command+0x544>
  4057c8:	f9403be0 	ldr	x0, [sp, #112]
  4057cc:	11000739 	add	w25, w25, #0x1
  4057d0:	f9400000 	ldr	x0, [x0]
  4057d4:	b4000740 	cbz	x0, 4058bc <find_command+0x3cc>
  4057d8:	39400000 	ldrb	w0, [x0]
  4057dc:	7101881f 	cmp	w0, #0x62
  4057e0:	54fffec1 	b.ne	4057b8 <find_command+0x2c8>  // b.any
  4057e4:	d503201f 	nop
  4057e8:	350000f7 	cbnz	w23, 405804 <find_command+0x314>
  4057ec:	52800040 	mov	w0, #0x2                   	// #2
  4057f0:	a94363f7 	ldp	x23, x24, [sp, #48]
  4057f4:	b9000280 	str	w0, [x20]
  4057f8:	f900069b 	str	x27, [x20, #8]
  4057fc:	a94573fb 	ldp	x27, x28, [sp, #80]
  405800:	17ffff52 	b	405548 <find_command+0x58>
  405804:	f945a353 	ldr	x19, [x26, #2880]
  405808:	b9400260 	ldr	w0, [x19]
  40580c:	11000400 	add	w0, w0, #0x1
  405810:	b9000260 	str	w0, [x19]
  405814:	52800021 	mov	w1, #0x1                   	// #1
  405818:	aa1503e0 	mov	x0, x21
  40581c:	97fffd15 	bl	404c70 <cmdlookup>
  405820:	aa0003fc 	mov	x28, x0
  405824:	52800040 	mov	w0, #0x2                   	// #2
  405828:	f900079b 	str	x27, [x28, #8]
  40582c:	79002380 	strh	w0, [x28, #16]
  405830:	b9400260 	ldr	w0, [x19]
  405834:	51000400 	sub	w0, w0, #0x1
  405838:	b9000260 	str	w0, [x19]
  40583c:	35000080 	cbnz	w0, 40584c <find_command+0x35c>
  405840:	f9434740 	ldr	x0, [x26, #1672]
  405844:	b9400000 	ldr	w0, [x0]
  405848:	35000300 	cbnz	w0, 4058a8 <find_command+0x3b8>
  40584c:	79c02380 	ldrsh	w0, [x28, #16]
  405850:	17ffffc6 	b	405768 <find_command+0x278>
  405854:	52800201 	mov	w1, #0x10                  	// #16
  405858:	17ffff66 	b	4055f0 <find_command+0x100>
  40585c:	79c02380 	ldrsh	w0, [x28, #16]
  405860:	7100081f 	cmp	w0, #0x2
  405864:	54001580 	b.eq	405b14 <find_command+0x624>  // b.none
  405868:	b9400b80 	ldr	w0, [x28, #8]
  40586c:	b9006be0 	str	w0, [sp, #104]
  405870:	17ffff88 	b	405690 <find_command+0x1a0>
  405874:	d280001c 	mov	x28, #0x0                   	// #0
  405878:	52800016 	mov	w22, #0x0                   	// #0
  40587c:	17ffff6a 	b	405624 <find_command+0x134>
  405880:	b0000167 	adrp	x7, 432000 <signal_names+0x100>
  405884:	f9471ce0 	ldr	x0, [x7, #3640]
  405888:	d63f0000 	blr	x0
  40588c:	b9400000 	ldr	w0, [x0]
  405890:	b940a3e1 	ldr	w1, [sp, #160]
  405894:	7100081f 	cmp	w0, #0x2
  405898:	7a541804 	ccmp	w0, #0x14, #0x4, ne  // ne = any
  40589c:	1a800020 	csel	w0, w1, w0, eq  // eq = none
  4058a0:	b900a3e0 	str	w0, [sp, #160]
  4058a4:	17ffff89 	b	4056c8 <find_command+0x1d8>
  4058a8:	b0000167 	adrp	x7, 432000 <signal_names+0x100>
  4058ac:	f943d4e0 	ldr	x0, [x7, #1960]
  4058b0:	d63f0000 	blr	x0
  4058b4:	79c02380 	ldrsh	w0, [x28, #16]
  4058b8:	17ffffac 	b	405768 <find_command+0x278>
  4058bc:	f9403fe0 	ldr	x0, [sp, #120]
  4058c0:	f9400000 	ldr	x0, [x0]
  4058c4:	39400001 	ldrb	w1, [x0]
  4058c8:	7100bc3f 	cmp	w1, #0x2f
  4058cc:	b9406be1 	ldr	w1, [sp, #104]
  4058d0:	7a590021 	ccmp	w1, w25, #0x1, eq  // eq = none
  4058d4:	540016ea 	b.ge	405bb0 <find_command+0x6c0>  // b.tcont
  4058d8:	a9480be1 	ldp	x1, x2, [sp, #128]
  4058dc:	d63f0040 	blr	x2
  4058e0:	37f817c0 	tbnz	w0, #31, 405bd8 <find_command+0x6e8>
  4058e4:	b940cbe0 	ldr	w0, [sp, #200]
  4058e8:	12140c00 	and	w0, w0, #0xf000
  4058ec:	7140201f 	cmp	w0, #0x8, lsl #12
  4058f0:	54000fe0 	b.eq	405aec <find_command+0x5fc>  // b.none
  4058f4:	528001a0 	mov	w0, #0xd                   	// #13
  4058f8:	b900a3e0 	str	w0, [sp, #160]
  4058fc:	17ffffaf 	b	4057b8 <find_command+0x2c8>
  405900:	f90037e2 	str	x2, [sp, #104]
  405904:	b4000f49 	cbz	x9, 405aec <find_command+0x5fc>
  405908:	b0000167 	adrp	x7, 432000 <signal_names+0x100>
  40590c:	93407d00 	sxtw	x0, w8
  405910:	f945e4e1 	ldr	x1, [x7, #3016]
  405914:	d63f0020 	blr	x1
  405918:	b0000167 	adrp	x7, 432000 <signal_names+0x100>
  40591c:	f94037e2 	ldr	x2, [sp, #104]
  405920:	f943fce1 	ldr	x1, [x7, #2040]
  405924:	aa0203e0 	mov	x0, x2
  405928:	d63f0020 	blr	x1
  40592c:	aa1503e0 	mov	x0, x21
  405930:	52800001 	mov	w1, #0x0                   	// #0
  405934:	97fffccf 	bl	404c70 <cmdlookup>
  405938:	aa0003fc 	mov	x28, x0
  40593c:	f94037e2 	ldr	x2, [sp, #104]
  405940:	b4001b60 	cbz	x0, 405cac <find_command+0x7bc>
  405944:	79c02000 	ldrsh	w0, [x0, #16]
  405948:	7100041f 	cmp	w0, #0x1
  40594c:	54001b01 	b.ne	405cac <find_command+0x7bc>  // b.any
  405950:	b0000167 	adrp	x7, 432000 <signal_names+0x100>
  405954:	aa0203e0 	mov	x0, x2
  405958:	f946ece1 	ldr	x1, [x7, #3544]
  40595c:	d63f0020 	blr	x1
  405960:	79c02380 	ldrsh	w0, [x28, #16]
  405964:	17ffff81 	b	405768 <find_command+0x278>
  405968:	f9479f40 	ldr	x0, [x26, #3896]
  40596c:	f9003be0 	str	x0, [sp, #112]
  405970:	9102e3e0 	add	x0, sp, #0xb8
  405974:	f90047e0 	str	x0, [sp, #136]
  405978:	f943c35b 	ldr	x27, [x26, #1920]
  40597c:	9102a3f8 	add	x24, sp, #0xa8
  405980:	f9470340 	ldr	x0, [x26, #3584]
  405984:	12800019 	mov	w25, #0xffffffff            	// #-1
  405988:	f9004be0 	str	x0, [sp, #144]
  40598c:	52800040 	mov	w0, #0x2                   	// #2
  405990:	b900a3e0 	str	w0, [sp, #160]
  405994:	aa1503e1 	mov	x1, x21
  405998:	aa1803e0 	mov	x0, x24
  40599c:	97fffd3f 	bl	404e98 <padvance_magic.constprop.0>
  4059a0:	2a0003e8 	mov	w8, w0
  4059a4:	37f80480 	tbnz	w0, #31, 405a34 <find_command+0x544>
  4059a8:	f9400369 	ldr	x9, [x27]
  4059ac:	11000739 	add	w25, w25, #0x1
  4059b0:	b4000089 	cbz	x9, 4059c0 <find_command+0x4d0>
  4059b4:	39400120 	ldrb	w0, [x9]
  4059b8:	7101881f 	cmp	w0, #0x62
  4059bc:	54fffec0 	b.eq	405994 <find_command+0x4a4>  // b.none
  4059c0:	f9403be0 	ldr	x0, [sp, #112]
  4059c4:	f9003fe9 	str	x9, [sp, #120]
  4059c8:	b90083e8 	str	w8, [sp, #128]
  4059cc:	f9400002 	ldr	x2, [x0]
  4059d0:	39400040 	ldrb	w0, [x2]
  4059d4:	7100bc1f 	cmp	w0, #0x2f
  4059d8:	b9406be0 	ldr	w0, [sp, #104]
  4059dc:	7a590001 	ccmp	w0, w25, #0x1, eq  // eq = none
  4059e0:	54000f2a 	b.ge	405bc4 <find_command+0x6d4>  // b.tcont
  4059e4:	aa0203e0 	mov	x0, x2
  4059e8:	f9004fe2 	str	x2, [sp, #152]
  4059ec:	f94047e1 	ldr	x1, [sp, #136]
  4059f0:	f9404be2 	ldr	x2, [sp, #144]
  4059f4:	d63f0040 	blr	x2
  4059f8:	37f811a0 	tbnz	w0, #31, 405c2c <find_command+0x73c>
  4059fc:	b940cbe0 	ldr	w0, [sp, #200]
  405a00:	b94083e8 	ldr	w8, [sp, #128]
  405a04:	12140c00 	and	w0, w0, #0xf000
  405a08:	7140201f 	cmp	w0, #0x8, lsl #12
  405a0c:	f9403fe9 	ldr	x9, [sp, #120]
  405a10:	f9404fe2 	ldr	x2, [sp, #152]
  405a14:	54fff760 	b.eq	405900 <find_command+0x410>  // b.none
  405a18:	528001a0 	mov	w0, #0xd                   	// #13
  405a1c:	aa1503e1 	mov	x1, x21
  405a20:	b900a3e0 	str	w0, [sp, #160]
  405a24:	aa1803e0 	mov	x0, x24
  405a28:	97fffd1c 	bl	404e98 <padvance_magic.constprop.0>
  405a2c:	2a0003e8 	mov	w8, w0
  405a30:	36fffbc0 	tbz	w0, #31, 4059a8 <find_command+0x4b8>
  405a34:	f100039f 	cmp	x28, #0x0
  405a38:	7a401ac4 	ccmp	w22, #0x0, #0x4, ne  // ne = any
  405a3c:	540001e1 	b.ne	405a78 <find_command+0x588>  // b.any
  405a40:	3607de13 	tbz	w19, #0, 405600 <find_command+0x110>
  405a44:	b0000167 	adrp	x7, 432000 <signal_names+0x100>
  405a48:	b940a3e0 	ldr	w0, [sp, #160]
  405a4c:	52800081 	mov	w1, #0x4                   	// #4
  405a50:	f94464e2 	ldr	x2, [x7, #2248]
  405a54:	d63f0040 	blr	x2
  405a58:	aa0003e2 	mov	x2, x0
  405a5c:	b0000167 	adrp	x7, 432000 <signal_names+0x100>
  405a60:	aa1503e1 	mov	x1, x21
  405a64:	90000120 	adrp	x0, 429000 <prec+0x170>
  405a68:	91010000 	add	x0, x0, #0x40
  405a6c:	f94594e3 	ldr	x3, [x7, #2856]
  405a70:	d63f0060 	blr	x3
  405a74:	17fffee3 	b	405600 <find_command+0x110>
  405a78:	f945a341 	ldr	x1, [x26, #2880]
  405a7c:	b0000167 	adrp	x7, 432000 <signal_names+0x100>
  405a80:	b9400020 	ldr	w0, [x1]
  405a84:	11000400 	add	w0, w0, #0x1
  405a88:	b9000020 	str	w0, [x1]
  405a8c:	f9455b40 	ldr	x0, [x26, #2736]
  405a90:	f9400000 	ldr	x0, [x0]
  405a94:	f9400016 	ldr	x22, [x0]
  405a98:	f94002c1 	ldr	x1, [x22]
  405a9c:	f9000001 	str	x1, [x0]
  405aa0:	79c022c0 	ldrsh	w0, [x22, #16]
  405aa4:	7100041f 	cmp	w0, #0x1
  405aa8:	54000f20 	b.eq	405c8c <find_command+0x79c>  // b.none
  405aac:	b0000167 	adrp	x7, 432000 <signal_names+0x100>
  405ab0:	aa1603e0 	mov	x0, x22
  405ab4:	f947dce1 	ldr	x1, [x7, #4024]
  405ab8:	d63f0020 	blr	x1
  405abc:	f945a341 	ldr	x1, [x26, #2880]
  405ac0:	b9400020 	ldr	w0, [x1]
  405ac4:	51000400 	sub	w0, w0, #0x1
  405ac8:	b9000020 	str	w0, [x1]
  405acc:	35fffba0 	cbnz	w0, 405a40 <find_command+0x550>
  405ad0:	f9434740 	ldr	x0, [x26, #1672]
  405ad4:	b9400000 	ldr	w0, [x0]
  405ad8:	34fffb40 	cbz	w0, 405a40 <find_command+0x550>
  405adc:	b0000167 	adrp	x7, 432000 <signal_names+0x100>
  405ae0:	f943d4e0 	ldr	x0, [x7, #1960]
  405ae4:	d63f0000 	blr	x0
  405ae8:	17ffffd6 	b	405a40 <find_command+0x550>
  405aec:	350008b7 	cbnz	w23, 405c00 <find_command+0x710>
  405af0:	a94363f7 	ldp	x23, x24, [sp, #48]
  405af4:	a94573fb 	ldp	x27, x28, [sp, #80]
  405af8:	b900029f 	str	wzr, [x20]
  405afc:	b9000a99 	str	w25, [x20, #8]
  405b00:	17fffe92 	b	405548 <find_command+0x58>
  405b04:	6b19001f 	cmp	w0, w25
  405b08:	54ffde0c 	b.gt	4056c8 <find_command+0x1d8>
  405b0c:	79c02380 	ldrsh	w0, [x28, #16]
  405b10:	17ffff16 	b	405768 <find_command+0x278>
  405b14:	d0000160 	adrp	x0, 433000 <__dso_handle>
  405b18:	b9401c00 	ldr	w0, [x0, #28]
  405b1c:	b9006be0 	str	w0, [sp, #104]
  405b20:	17fffedc 	b	405690 <find_command+0x1a0>
  405b24:	f9479f40 	ldr	x0, [x26, #3896]
  405b28:	f9003be0 	str	x0, [sp, #112]
  405b2c:	9102e3e0 	add	x0, sp, #0xb8
  405b30:	f9003fe0 	str	x0, [sp, #120]
  405b34:	f943c35b 	ldr	x27, [x26, #1920]
  405b38:	9102a3f8 	add	x24, sp, #0xa8
  405b3c:	f9470340 	ldr	x0, [x26, #3584]
  405b40:	12800019 	mov	w25, #0xffffffff            	// #-1
  405b44:	f90043e0 	str	x0, [sp, #128]
  405b48:	52800040 	mov	w0, #0x2                   	// #2
  405b4c:	b900a3e0 	str	w0, [sp, #160]
  405b50:	aa1503e1 	mov	x1, x21
  405b54:	aa1803e0 	mov	x0, x24
  405b58:	97fffcd0 	bl	404e98 <padvance_magic.constprop.0>
  405b5c:	37fff6c0 	tbnz	w0, #31, 405a34 <find_command+0x544>
  405b60:	f9400360 	ldr	x0, [x27]
  405b64:	11000739 	add	w25, w25, #0x1
  405b68:	b5ffff40 	cbnz	x0, 405b50 <find_command+0x660>
  405b6c:	f9403be0 	ldr	x0, [sp, #112]
  405b70:	f9400000 	ldr	x0, [x0]
  405b74:	39400001 	ldrb	w1, [x0]
  405b78:	7100bc3f 	cmp	w1, #0x2f
  405b7c:	b9406be1 	ldr	w1, [sp, #104]
  405b80:	7a590021 	ccmp	w1, w25, #0x1, eq  // eq = none
  405b84:	5400068a 	b.ge	405c54 <find_command+0x764>  // b.tcont
  405b88:	a9478be1 	ldp	x1, x2, [sp, #120]
  405b8c:	d63f0040 	blr	x2
  405b90:	37f806a0 	tbnz	w0, #31, 405c64 <find_command+0x774>
  405b94:	b940cbe0 	ldr	w0, [sp, #200]
  405b98:	12140c00 	and	w0, w0, #0xf000
  405b9c:	7140201f 	cmp	w0, #0x8, lsl #12
  405ba0:	54fffa60 	b.eq	405aec <find_command+0x5fc>  // b.none
  405ba4:	528001a0 	mov	w0, #0xd                   	// #13
  405ba8:	b900a3e0 	str	w0, [sp, #160]
  405bac:	17ffffe9 	b	405b50 <find_command+0x660>
  405bb0:	b9406be0 	ldr	w0, [sp, #104]
  405bb4:	6b19001f 	cmp	w0, w25
  405bb8:	54ffe00c 	b.gt	4057b8 <find_command+0x2c8>
  405bbc:	79c02380 	ldrsh	w0, [x28, #16]
  405bc0:	17fffeea 	b	405768 <find_command+0x278>
  405bc4:	b9406be0 	ldr	w0, [sp, #104]
  405bc8:	6b19001f 	cmp	w0, w25
  405bcc:	54ffee4c 	b.gt	405994 <find_command+0x4a4>
  405bd0:	79c02380 	ldrsh	w0, [x28, #16]
  405bd4:	17fffee5 	b	405768 <find_command+0x278>
  405bd8:	b0000167 	adrp	x7, 432000 <signal_names+0x100>
  405bdc:	f9471ce0 	ldr	x0, [x7, #3640]
  405be0:	d63f0000 	blr	x0
  405be4:	b9400000 	ldr	w0, [x0]
  405be8:	b940a3e1 	ldr	w1, [sp, #160]
  405bec:	7100081f 	cmp	w0, #0x2
  405bf0:	7a541804 	ccmp	w0, #0x14, #0x4, ne  // ne = any
  405bf4:	1a800020 	csel	w0, w1, w0, eq  // eq = none
  405bf8:	b900a3e0 	str	w0, [sp, #160]
  405bfc:	17fffeef 	b	4057b8 <find_command+0x2c8>
  405c00:	f945a353 	ldr	x19, [x26, #2880]
  405c04:	b9400260 	ldr	w0, [x19]
  405c08:	11000400 	add	w0, w0, #0x1
  405c0c:	b9000260 	str	w0, [x19]
  405c10:	52800021 	mov	w1, #0x1                   	// #1
  405c14:	aa1503e0 	mov	x0, x21
  405c18:	97fffc16 	bl	404c70 <cmdlookup>
  405c1c:	aa0003fc 	mov	x28, x0
  405c20:	b9000819 	str	w25, [x0, #8]
  405c24:	7900201f 	strh	wzr, [x0, #16]
  405c28:	17ffff02 	b	405830 <find_command+0x340>
  405c2c:	b0000167 	adrp	x7, 432000 <signal_names+0x100>
  405c30:	f9471ce0 	ldr	x0, [x7, #3640]
  405c34:	d63f0000 	blr	x0
  405c38:	b9400000 	ldr	w0, [x0]
  405c3c:	b940a3e1 	ldr	w1, [sp, #160]
  405c40:	7100081f 	cmp	w0, #0x2
  405c44:	7a541804 	ccmp	w0, #0x14, #0x4, ne  // ne = any
  405c48:	1a800020 	csel	w0, w1, w0, eq  // eq = none
  405c4c:	b900a3e0 	str	w0, [sp, #160]
  405c50:	17ffff51 	b	405994 <find_command+0x4a4>
  405c54:	6b19003f 	cmp	w1, w25
  405c58:	54fff7cc 	b.gt	405b50 <find_command+0x660>
  405c5c:	79c02380 	ldrsh	w0, [x28, #16]
  405c60:	17fffec2 	b	405768 <find_command+0x278>
  405c64:	b0000167 	adrp	x7, 432000 <signal_names+0x100>
  405c68:	f9471ce0 	ldr	x0, [x7, #3640]
  405c6c:	d63f0000 	blr	x0
  405c70:	b9400000 	ldr	w0, [x0]
  405c74:	b940a3e1 	ldr	w1, [sp, #160]
  405c78:	7100081f 	cmp	w0, #0x2
  405c7c:	7a541804 	ccmp	w0, #0x14, #0x4, ne  // ne = any
  405c80:	1a800020 	csel	w0, w1, w0, eq  // eq = none
  405c84:	b900a3e0 	str	w0, [sp, #160]
  405c88:	17ffffb2 	b	405b50 <find_command+0x660>
  405c8c:	f94508e1 	ldr	x1, [x7, #2576]
  405c90:	f94006c0 	ldr	x0, [x22, #8]
  405c94:	d63f0020 	blr	x1
  405c98:	17ffff85 	b	405aac <find_command+0x5bc>
  405c9c:	f944cce0 	ldr	x0, [x7, #2456]
  405ca0:	a90363f7 	stp	x23, x24, [sp, #48]
  405ca4:	a90573fb 	stp	x27, x28, [sp, #80]
  405ca8:	d63f0000 	blr	x0
  405cac:	b0000167 	adrp	x7, 432000 <signal_names+0x100>
  405cb0:	90000120 	adrp	x0, 429000 <prec+0x170>
  405cb4:	aa1503e1 	mov	x1, x21
  405cb8:	91012000 	add	x0, x0, #0x48
  405cbc:	f94614e3 	ldr	x3, [x7, #3112]
  405cc0:	d63f0060 	blr	x3
  405cc4:	d503201f 	nop

0000000000405cc8 <hashcmd>:
  405cc8:	a9b47bfd 	stp	x29, x30, [sp, #-192]!
  405ccc:	90000120 	adrp	x0, 429000 <prec+0x170>
  405cd0:	91232000 	add	x0, x0, #0x8c8
  405cd4:	910003fd 	mov	x29, sp
  405cd8:	a90153f3 	stp	x19, x20, [sp, #16]
  405cdc:	b0000174 	adrp	x20, 432000 <signal_names+0x100>
  405ce0:	f943d281 	ldr	x1, [x20, #1952]
  405ce4:	f9400022 	ldr	x2, [x1]
  405ce8:	f9005fe2 	str	x2, [sp, #184]
  405cec:	d2800002 	mov	x2, #0x0                   	// #0
  405cf0:	f944ee81 	ldr	x1, [x20, #2520]
  405cf4:	d63f0020 	blr	x1
  405cf8:	b9008fe0 	str	w0, [sp, #140]
  405cfc:	35000b20 	cbnz	w0, 405e60 <hashcmd+0x198>
  405d00:	f945b680 	ldr	x0, [x20, #2920]
  405d04:	a9025bf5 	stp	x21, x22, [sp, #32]
  405d08:	9102a3f5 	add	x21, sp, #0xa8
  405d0c:	a90363f7 	stp	x23, x24, [sp, #48]
  405d10:	f9400000 	ldr	x0, [x0]
  405d14:	a9046bf9 	stp	x25, x26, [sp, #64]
  405d18:	f9400013 	ldr	x19, [x0]
  405d1c:	b4000b13 	cbz	x19, 405e7c <hashcmd+0x1b4>
  405d20:	d0000178 	adrp	x24, 433000 <__dso_handle>
  405d24:	52800036 	mov	w22, #0x1                   	// #1
  405d28:	f945a297 	ldr	x23, [x20, #2880]
  405d2c:	91007318 	add	x24, x24, #0x1c
  405d30:	14000015 	b	405d84 <hashcmd+0xbc>
  405d34:	7100083f 	cmp	w1, #0x2
  405d38:	540006a0 	b.eq	405e0c <hashcmd+0x144>  // b.none
  405d3c:	f9446e83 	ldr	x3, [x20, #2264]
  405d40:	aa1303e0 	mov	x0, x19
  405d44:	aa1503e1 	mov	x1, x21
  405d48:	52800022 	mov	w2, #0x1                   	// #1
  405d4c:	f9403863 	ldr	x3, [x3, #112]
  405d50:	91001463 	add	x3, x3, #0x5
  405d54:	97fffde7 	bl	4054f0 <find_command>
  405d58:	f945b681 	ldr	x1, [x20, #2920]
  405d5c:	b940abe2 	ldr	w2, [sp, #168]
  405d60:	f9400020 	ldr	x0, [x1]
  405d64:	3100045f 	cmn	w2, #0x1
  405d68:	b9408fe2 	ldr	w2, [sp, #140]
  405d6c:	f9400413 	ldr	x19, [x0, #8]
  405d70:	1a961042 	csel	w2, w2, w22, ne  // ne = any
  405d74:	b9008fe2 	str	w2, [sp, #140]
  405d78:	91002002 	add	x2, x0, #0x8
  405d7c:	f9000022 	str	x2, [x1]
  405d80:	b4000553 	cbz	x19, 405e28 <hashcmd+0x160>
  405d84:	aa1303e0 	mov	x0, x19
  405d88:	52800001 	mov	w1, #0x0                   	// #0
  405d8c:	97fffbb9 	bl	404c70 <cmdlookup>
  405d90:	b4fffd60 	cbz	x0, 405d3c <hashcmd+0x74>
  405d94:	79c02001 	ldrsh	w1, [x0, #16]
  405d98:	35fffce1 	cbnz	w1, 405d34 <hashcmd+0x6c>
  405d9c:	b94002e0 	ldr	w0, [x23]
  405da0:	b0000165 	adrp	x5, 432000 <signal_names+0x100>
  405da4:	11000400 	add	w0, w0, #0x1
  405da8:	b90002e0 	str	w0, [x23]
  405dac:	f9455a80 	ldr	x0, [x20, #2736]
  405db0:	f9400000 	ldr	x0, [x0]
  405db4:	f9400019 	ldr	x25, [x0]
  405db8:	f9400321 	ldr	x1, [x25]
  405dbc:	f9000001 	str	x1, [x0]
  405dc0:	79c02320 	ldrsh	w0, [x25, #16]
  405dc4:	7100041f 	cmp	w0, #0x1
  405dc8:	54000520 	b.eq	405e6c <hashcmd+0x1a4>  // b.none
  405dcc:	b0000165 	adrp	x5, 432000 <signal_names+0x100>
  405dd0:	aa1903e0 	mov	x0, x25
  405dd4:	f947dca1 	ldr	x1, [x5, #4024]
  405dd8:	d63f0020 	blr	x1
  405ddc:	f945a281 	ldr	x1, [x20, #2880]
  405de0:	b9400020 	ldr	w0, [x1]
  405de4:	51000400 	sub	w0, w0, #0x1
  405de8:	b9000020 	str	w0, [x1]
  405dec:	35fffa80 	cbnz	w0, 405d3c <hashcmd+0x74>
  405df0:	f9434680 	ldr	x0, [x20, #1672]
  405df4:	b9400000 	ldr	w0, [x0]
  405df8:	34fffa20 	cbz	w0, 405d3c <hashcmd+0x74>
  405dfc:	b0000165 	adrp	x5, 432000 <signal_names+0x100>
  405e00:	f943d4a0 	ldr	x0, [x5, #1960]
  405e04:	d63f0000 	blr	x0
  405e08:	17ffffcd 	b	405d3c <hashcmd+0x74>
  405e0c:	f9400400 	ldr	x0, [x0, #8]
  405e10:	b9401000 	ldr	w0, [x0, #16]
  405e14:	370ff940 	tbnz	w0, #1, 405d3c <hashcmd+0x74>
  405e18:	b9400300 	ldr	w0, [x24]
  405e1c:	7100001f 	cmp	w0, #0x0
  405e20:	54fffbec 	b.gt	405d9c <hashcmd+0xd4>
  405e24:	17ffffc6 	b	405d3c <hashcmd+0x74>
  405e28:	a9425bf5 	ldp	x21, x22, [sp, #32]
  405e2c:	a94363f7 	ldp	x23, x24, [sp, #48]
  405e30:	a9446bf9 	ldp	x25, x26, [sp, #64]
  405e34:	b0000165 	adrp	x5, 432000 <signal_names+0x100>
  405e38:	f943d294 	ldr	x20, [x20, #1952]
  405e3c:	f9405fe0 	ldr	x0, [sp, #184]
  405e40:	f9400281 	ldr	x1, [x20]
  405e44:	eb010000 	subs	x0, x0, x1
  405e48:	d2800001 	mov	x1, #0x0                   	// #0
  405e4c:	54001521 	b.ne	4060f0 <hashcmd+0x428>  // b.any
  405e50:	b9408fe0 	ldr	w0, [sp, #140]
  405e54:	a94153f3 	ldp	x19, x20, [sp, #16]
  405e58:	a8cc7bfd 	ldp	x29, x30, [sp], #192
  405e5c:	d65f03c0 	ret
  405e60:	97fffbd2 	bl	404da8 <clearcmdentry>
  405e64:	b9008fff 	str	wzr, [sp, #140]
  405e68:	17fffff3 	b	405e34 <hashcmd+0x16c>
  405e6c:	f94508a1 	ldr	x1, [x5, #2576]
  405e70:	f9400720 	ldr	x0, [x25, #8]
  405e74:	d63f0020 	blr	x1
  405e78:	17ffffd5 	b	405dcc <hashcmd+0x104>
  405e7c:	d0000160 	adrp	x0, 433000 <__dso_handle>
  405e80:	9000013a 	adrp	x26, 429000 <prec+0x170>
  405e84:	9100c35a 	add	x26, x26, #0x30
